
target/riscv32imac-unknown-none-elf/release/longan_net:     file format elf32-littleriscv


Disassembly of section .text:

08000000 <_start>:
 8000000:	080000b7          	lui	ra,0x8000
 8000004:	00808067          	jr	8(ra) # 8000008 <_abs_start>

08000008 <_abs_start>:
 8000008:	30405073          	csrwi	mie,0
 800000c:	34405073          	csrwi	mip,0
 8000010:	4081                	li	ra,0
 8000012:	4101                	li	sp,0
 8000014:	4181                	li	gp,0
 8000016:	4201                	li	tp,0
 8000018:	4281                	li	t0,0
 800001a:	4301                	li	t1,0
 800001c:	4381                	li	t2,0
 800001e:	4401                	li	s0,0
 8000020:	4481                	li	s1,0
 8000022:	4501                	li	a0,0
 8000024:	4581                	li	a1,0
 8000026:	4601                	li	a2,0
 8000028:	4681                	li	a3,0
 800002a:	4701                	li	a4,0
 800002c:	4781                	li	a5,0
 800002e:	4801                	li	a6,0
 8000030:	4881                	li	a7,0
 8000032:	4901                	li	s2,0
 8000034:	4981                	li	s3,0
 8000036:	4a01                	li	s4,0
 8000038:	4a81                	li	s5,0
 800003a:	4b01                	li	s6,0
 800003c:	4b81                	li	s7,0
 800003e:	4c01                	li	s8,0
 8000040:	4c81                	li	s9,0
 8000042:	4d01                	li	s10,0
 8000044:	4d81                	li	s11,0
 8000046:	4e01                	li	t3,0
 8000048:	4e81                	li	t4,0
 800004a:	4f01                	li	t5,0
 800004c:	4f81                	li	t6,0
 800004e:	18000197          	auipc	gp,0x18000
 8000052:	7b218193          	addi	gp,gp,1970 # 20000800 <__global_pointer$>
 8000056:	f1402673          	csrr	a2,mhartid
 800005a:	000002b7          	lui	t0,0x0
 800005e:	00028293          	mv	t0,t0
 8000062:	00c2f463          	bgeu	t0,a2,800006a <_abs_start+0x62>
 8000066:	1f20206f          	j	8002258 <abort>
 800006a:	18008117          	auipc	sp,0x18008
 800006e:	f9610113          	addi	sp,sp,-106 # 20008000 <_stack_start>
 8000072:	000012b7          	lui	t0,0x1
 8000076:	80028293          	addi	t0,t0,-2048 # 800 <_hart_stack_size>
 800007a:	025602b3          	mul	t0,a2,t0
 800007e:	40510133          	sub	sp,sp,t0
 8000082:	00010433          	add	s0,sp,zero
 8000086:	0040006f          	j	800008a <_start_rust>

0800008a <_start_rust>:
 800008a:	1141                	addi	sp,sp,-16
 800008c:	c606                	sw	ra,12(sp)
 800008e:	00002097          	auipc	ra,0x2
 8000092:	e76080e7          	jalr	-394(ra) # 8001f04 <default_mp_hook>
 8000096:	c921                	beqz	a0,80000e6 <_start_rust+0x5c>
 8000098:	00002097          	auipc	ra,0x2
 800009c:	e6a080e7          	jalr	-406(ra) # 8001f02 <default_pre_init>
 80000a0:	20000537          	lui	a0,0x20000
 80000a4:	00450513          	addi	a0,a0,4 # 20000004 <_ebss>
 80000a8:	200005b7          	lui	a1,0x20000
 80000ac:	00058593          	mv	a1,a1
 80000b0:	00a5f763          	bgeu	a1,a0,80000be <_start_rust+0x34>
 80000b4:	0005a023          	sw	zero,0(a1) # 20000000 <_edata>
 80000b8:	0591                	addi	a1,a1,4
 80000ba:	fea5ede3          	bltu	a1,a0,80000b4 <_start_rust+0x2a>
 80000be:	20000537          	lui	a0,0x20000
 80000c2:	00050513          	mv	a0,a0
 80000c6:	200005b7          	lui	a1,0x20000
 80000ca:	00058593          	mv	a1,a1
 80000ce:	00a5fc63          	bgeu	a1,a0,80000e6 <_start_rust+0x5c>
 80000d2:	08003637          	lui	a2,0x8003
 80000d6:	3d060613          	addi	a2,a2,976 # 80033d0 <_sidata>
 80000da:	4214                	lw	a3,0(a2)
 80000dc:	c194                	sw	a3,0(a1)
 80000de:	0591                	addi	a1,a1,4
 80000e0:	0611                	addi	a2,a2,4
 80000e2:	fea5ece3          	bltu	a1,a0,80000da <_start_rust+0x50>
 80000e6:	00002097          	auipc	ra,0x2
 80000ea:	e3e080e7          	jalr	-450(ra) # 8001f24 <_setup_interrupts>
 80000ee:	00000097          	auipc	ra,0x0
 80000f2:	0ee080e7          	jalr	238(ra) # 80001dc <main>
	...

08000100 <_start_trap>:
 8000100:	7139                	addi	sp,sp,-64
 8000102:	c006                	sw	ra,0(sp)
 8000104:	c216                	sw	t0,4(sp)
 8000106:	c41a                	sw	t1,8(sp)
 8000108:	c61e                	sw	t2,12(sp)
 800010a:	c872                	sw	t3,16(sp)
 800010c:	ca76                	sw	t4,20(sp)
 800010e:	cc7a                	sw	t5,24(sp)
 8000110:	ce7e                	sw	t6,28(sp)
 8000112:	d02a                	sw	a0,32(sp)
 8000114:	d22e                	sw	a1,36(sp)
 8000116:	d432                	sw	a2,40(sp)
 8000118:	d636                	sw	a3,44(sp)
 800011a:	d83a                	sw	a4,48(sp)
 800011c:	da3e                	sw	a5,52(sp)
 800011e:	dc42                	sw	a6,56(sp)
 8000120:	de46                	sw	a7,60(sp)
 8000122:	00010533          	add	a0,sp,zero
 8000126:	05a000ef          	jal	ra,8000180 <_start_trap_rust>
 800012a:	4082                	lw	ra,0(sp)
 800012c:	4292                	lw	t0,4(sp)
 800012e:	4322                	lw	t1,8(sp)
 8000130:	43b2                	lw	t2,12(sp)
 8000132:	4e42                	lw	t3,16(sp)
 8000134:	4ed2                	lw	t4,20(sp)
 8000136:	4f62                	lw	t5,24(sp)
 8000138:	4ff2                	lw	t6,28(sp)
 800013a:	5502                	lw	a0,32(sp)
 800013c:	5592                	lw	a1,36(sp)
 800013e:	5622                	lw	a2,40(sp)
 8000140:	56b2                	lw	a3,44(sp)
 8000142:	5742                	lw	a4,48(sp)
 8000144:	57d2                	lw	a5,52(sp)
 8000146:	5862                	lw	a6,56(sp)
 8000148:	58f2                	lw	a7,60(sp)
 800014a:	6121                	addi	sp,sp,64
 800014c:	30200073          	mret
	...

08000180 <_start_trap_rust>:
 8000180:	1141                	addi	sp,sp,-16
 8000182:	c606                	sw	ra,12(sp)
 8000184:	c422                	sw	s0,8(sp)
 8000186:	842a                	mv	s0,a0
 8000188:	00002097          	auipc	ra,0x2
 800018c:	096080e7          	jalr	150(ra) # 800221e <__read_mcause>
 8000190:	55fd                	li	a1,-1
 8000192:	00a5da63          	bge	a1,a0,80001a6 <_start_trap_rust+0x26>
 8000196:	8522                	mv	a0,s0
 8000198:	4422                	lw	s0,8(sp)
 800019a:	40b2                	lw	ra,12(sp)
 800019c:	0141                	addi	sp,sp,16
 800019e:	00002317          	auipc	t1,0x2
 80001a2:	d6030067          	jr	-672(t1) # 8001efe <DefaultExceptionHandler>
 80001a6:	800005b7          	lui	a1,0x80000
 80001aa:	15fd                	addi	a1,a1,-1
 80001ac:	8d6d                	and	a0,a0,a1
 80001ae:	45b1                	li	a1,12
 80001b0:	00b57e63          	bgeu	a0,a1,80001cc <_start_trap_rust+0x4c>
 80001b4:	080035b7          	lui	a1,0x8003
 80001b8:	3a058593          	addi	a1,a1,928 # 80033a0 <__INTERRUPTS>
 80001bc:	050a                	slli	a0,a0,0x2
 80001be:	952e                	add	a0,a0,a1
 80001c0:	411c                	lw	a5,0(a0)
 80001c2:	c789                	beqz	a5,80001cc <_start_trap_rust+0x4c>
 80001c4:	4422                	lw	s0,8(sp)
 80001c6:	40b2                	lw	ra,12(sp)
 80001c8:	0141                	addi	sp,sp,16
 80001ca:	8782                	jr	a5
 80001cc:	4422                	lw	s0,8(sp)
 80001ce:	40b2                	lw	ra,12(sp)
 80001d0:	0141                	addi	sp,sp,16
 80001d2:	00002317          	auipc	t1,0x2
 80001d6:	d2e30067          	jr	-722(t1) # 8001f00 <DefaultInterruptHandler>

080001da <_ZN4core3ptr13drop_in_place17he94a63149fd0b496E>:
 80001da:	8082                	ret

080001dc <main>:
 80001dc:	81010113          	addi	sp,sp,-2032
 80001e0:	7e112623          	sw	ra,2028(sp)
 80001e4:	7e812423          	sw	s0,2024(sp)
 80001e8:	7e912223          	sw	s1,2020(sp)
 80001ec:	7f212023          	sw	s2,2016(sp)
 80001f0:	7d312e23          	sw	s3,2012(sp)
 80001f4:	7d412c23          	sw	s4,2008(sp)
 80001f8:	7d512a23          	sw	s5,2004(sp)
 80001fc:	7d612823          	sw	s6,2000(sp)
 8000200:	7d712623          	sw	s7,1996(sp)
 8000204:	7d812423          	sw	s8,1992(sp)
 8000208:	7d912223          	sw	s9,1988(sp)
 800020c:	7da12023          	sw	s10,1984(sp)
 8000210:	7bb12e23          	sw	s11,1980(sp)
 8000214:	651d                	lui	a0,0x7
 8000216:	13050513          	addi	a0,a0,304 # 7130 <_hart_stack_size+0x6930>
 800021a:	40a10133          	sub	sp,sp,a0
 800021e:	00002097          	auipc	ra,0x2
 8000222:	fee080e7          	jalr	-18(ra) # 800220c <__read_mstatus>
 8000226:	842a                	mv	s0,a0
 8000228:	4521                	li	a0,8
 800022a:	00002097          	auipc	ra,0x2
 800022e:	fee080e7          	jalr	-18(ra) # 8002218 <__clear_mstatus>
 8000232:	20000537          	lui	a0,0x20000
 8000236:	00154583          	lbu	a1,1(a0) # 20000001 <DEVICE_PERIPHERALS>
 800023a:	4481                	li	s1,0
 800023c:	e199                	bnez	a1,8000242 <main+0x66>
 800023e:	2d70106f          	j	8001d14 <main+0x1b38>
 8000242:	00847513          	andi	a0,s0,8
 8000246:	c119                	beqz	a0,800024c <main+0x70>
 8000248:	2dd0106f          	j	8001d24 <main+0x1b48>
 800024c:	e099                	bnez	s1,8000252 <main+0x76>
 800024e:	2e70106f          	j	8001d34 <main+0x1b58>
 8000252:	4681                	li	a3,0
 8000254:	4805                	li	a6,1
 8000256:	48b5                	li	a7,13
 8000258:	42b1                	li	t0,12
 800025a:	007a1537          	lui	a0,0x7a1
 800025e:	20050e13          	addi	t3,a0,512 # 7a1200 <_hart_stack_size+0x7a0a00>
 8000262:	066ff537          	lui	a0,0x66ff
 8000266:	30050793          	addi	a5,a0,768 # 66ff300 <_hart_stack_size+0x66feb00>
 800026a:	433d                	li	t1,15
 800026c:	6521                	lui	a0,0x8
 800026e:	00350393          	addi	t2,a0,3 # 8003 <_hart_stack_size+0x7803>
 8000272:	4605                	li	a2,1
 8000274:	a00d                	j	8000296 <main+0xba>
 8000276:	4401                	li	s0,0
 8000278:	00b2b6b3          	sltu	a3,t0,a1
 800027c:	0035b713          	sltiu	a4,a1,3
 8000280:	00144413          	xori	s0,s0,1
 8000284:	8f61                	and	a4,a4,s0
 8000286:	029504b3          	mul	s1,a0,s1
 800028a:	8cbd                	xor	s1,s1,a5
 800028c:	0014b493          	seqz	s1,s1
 8000290:	8f65                	and	a4,a4,s1
 8000292:	962e                	add	a2,a2,a1
 8000294:	ef15                	bnez	a4,80002d0 <main+0xf4>
 8000296:	85b2                	mv	a1,a2
 8000298:	0ff6f513          	andi	a0,a3,255
 800029c:	00a03533          	snez	a0,a0
 80002a0:	00c8b633          	sltu	a2,a7,a2
 80002a4:	8d51                	or	a0,a0,a2
 80002a6:	c119                	beqz	a0,80002ac <main+0xd0>
 80002a8:	3710106f          	j	8001e18 <main+0x1c3c>
 80002ac:	e199                	bnez	a1,80002b2 <main+0xd6>
 80002ae:	3750106f          	j	8001e22 <main+0x1c46>
 80002b2:	02be54b3          	divu	s1,t3,a1
 80002b6:	0297d533          	divu	a0,a5,s1
 80002ba:	00d5b613          	sltiu	a2,a1,13
 80002be:	faa36ce3          	bltu	t1,a0,8000276 <main+0x9a>
 80002c2:	00a816b3          	sll	a3,a6,a0
 80002c6:	0076f6b3          	and	a3,a3,t2
 80002ca:	4405                	li	s0,1
 80002cc:	f6d5                	bnez	a3,8000278 <main+0x9c>
 80002ce:	b765                	j	8000276 <main+0x9a>
 80002d0:	ffe50613          	addi	a2,a0,-2
 80002d4:	0ff67693          	andi	a3,a2,255
 80002d8:	4735                	li	a4,13
 80002da:	00e6ed63          	bltu	a3,a4,80002f4 <main+0x118>
 80002de:	ff050613          	addi	a2,a0,-16
 80002e2:	0ff67613          	andi	a2,a2,255
 80002e6:	46c5                	li	a3,17
 80002e8:	00d66463          	bltu	a2,a3,80002f0 <main+0x114>
 80002ec:	34b0106f          	j	8001e36 <main+0x1c5a>
 80002f0:	fff50613          	addi	a2,a0,-1
 80002f4:	40021537          	lui	a0,0x40021
 80002f8:	4114                	lw	a3,0(a0)
 80002fa:	05bd                	addi	a1,a1,15
 80002fc:	0016e693          	ori	a3,a3,1
 8000300:	c114                	sw	a3,0(a0)
 8000302:	4114                	lw	a3,0(a0)
 8000304:	8a89                	andi	a3,a3,2
 8000306:	def5                	beqz	a3,8000302 <main+0x126>
 8000308:	40021537          	lui	a0,0x40021
 800030c:	4154                	lw	a3,4(a0)
 800030e:	9af1                	andi	a3,a3,-4
 8000310:	c154                	sw	a3,4(a0)
 8000312:	4114                	lw	a3,0(a0)
 8000314:	ff000737          	lui	a4,0xff000
 8000318:	177d                	addi	a4,a4,-1
 800031a:	8ef9                	and	a3,a3,a4
 800031c:	c114                	sw	a3,0(a0)
 800031e:	4154                	lw	a3,4(a0)
 8000320:	f0f6f693          	andi	a3,a3,-241
 8000324:	c154                	sw	a3,4(a0)
 8000326:	4154                	lw	a3,4(a0)
 8000328:	8ff6f693          	andi	a3,a3,-1793
 800032c:	4006e693          	ori	a3,a3,1024
 8000330:	c154                	sw	a3,4(a0)
 8000332:	4154                	lw	a3,4(a0)
 8000334:	7771                	lui	a4,0xffffc
 8000336:	7ff70713          	addi	a4,a4,2047 # ffffc7ff <_stack_start+0xdfff47ff>
 800033a:	8ef9                	and	a3,a3,a4
 800033c:	c154                	sw	a3,4(a0)
 800033e:	4114                	lw	a3,0(a0)
 8000340:	6741                	lui	a4,0x10
 8000342:	8ed9                	or	a3,a3,a4
 8000344:	c114                	sw	a3,0(a0)
 8000346:	000206b7          	lui	a3,0x20
 800034a:	4118                	lw	a4,0(a0)
 800034c:	8f75                	and	a4,a4,a3
 800034e:	df75                	beqz	a4,800034a <main+0x16e>
 8000350:	40021537          	lui	a0,0x40021
 8000354:	5554                	lw	a3,44(a0)
 8000356:	7741                	lui	a4,0xffff0
 8000358:	177d                	addi	a4,a4,-1
 800035a:	8ef9                	and	a3,a3,a4
 800035c:	d554                	sw	a3,44(a0)
 800035e:	5554                	lw	a3,44(a0)
 8000360:	9ac1                	andi	a3,a3,-16
 8000362:	89bd                	andi	a1,a1,15
 8000364:	8dd5                	or	a1,a1,a3
 8000366:	d54c                	sw	a1,44(a0)
 8000368:	414c                	lw	a1,4(a0)
 800036a:	66c1                	lui	a3,0x10
 800036c:	8dd5                	or	a1,a1,a3
 800036e:	c14c                	sw	a1,4(a0)
 8000370:	414c                	lw	a1,4(a0)
 8000372:	dfc406b7          	lui	a3,0xdfc40
 8000376:	16fd                	addi	a3,a3,-1
 8000378:	8df5                	and	a1,a1,a3
 800037a:	01067693          	andi	a3,a2,16
 800037e:	06e6                	slli	a3,a3,0x19
 8000380:	8a3d                	andi	a2,a2,15
 8000382:	064a                	slli	a2,a2,0x12
 8000384:	8e55                	or	a2,a2,a3
 8000386:	8dd1                	or	a1,a1,a2
 8000388:	c14c                	sw	a1,4(a0)
 800038a:	410c                	lw	a1,0(a0)
 800038c:	01000637          	lui	a2,0x1000
 8000390:	8dd1                	or	a1,a1,a2
 8000392:	c10c                	sw	a1,0(a0)
 8000394:	020005b7          	lui	a1,0x2000
 8000398:	4110                	lw	a2,0(a0)
 800039a:	8e6d                	and	a2,a2,a1
 800039c:	de75                	beqz	a2,8000398 <main+0x1bc>
 800039e:	400214b7          	lui	s1,0x40021
 80003a2:	40c8                	lw	a0,4(s1)
 80003a4:	9971                	andi	a0,a0,-4
 80003a6:	00256513          	ori	a0,a0,2
 80003aa:	c0c8                	sw	a0,4(s1)
 80003ac:	40c8                	lw	a0,4(s1)
 80003ae:	ff4005b7          	lui	a1,0xff400
 80003b2:	15fd                	addi	a1,a1,-1
 80003b4:	8d6d                	and	a0,a0,a1
 80003b6:	c0c8                	sw	a0,4(s1)
 80003b8:	00002097          	auipc	ra,0x2
 80003bc:	e54080e7          	jalr	-428(ra) # 800220c <__read_mstatus>
 80003c0:	842a                	mv	s0,a0
 80003c2:	4521                	li	a0,8
 80003c4:	00002097          	auipc	ra,0x2
 80003c8:	e54080e7          	jalr	-428(ra) # 8002218 <__clear_mstatus>
 80003cc:	4c88                	lw	a0,24(s1)
 80003ce:	00156513          	ori	a0,a0,1
 80003d2:	00847593          	andi	a1,s0,8
 80003d6:	cc88                	sw	a0,24(s1)
 80003d8:	c591                	beqz	a1,80003e4 <main+0x208>
 80003da:	4521                	li	a0,8
 80003dc:	00002097          	auipc	ra,0x2
 80003e0:	e36080e7          	jalr	-458(ra) # 8002212 <__set_mstatus>
 80003e4:	00002097          	auipc	ra,0x2
 80003e8:	e28080e7          	jalr	-472(ra) # 800220c <__read_mstatus>
 80003ec:	842a                	mv	s0,a0
 80003ee:	4521                	li	a0,8
 80003f0:	00002097          	auipc	ra,0x2
 80003f4:	e28080e7          	jalr	-472(ra) # 8002218 <__clear_mstatus>
 80003f8:	44c8                	lw	a0,12(s1)
 80003fa:	00156513          	ori	a0,a0,1
 80003fe:	c4c8                	sw	a0,12(s1)
 8000400:	44c8                	lw	a0,12(s1)
 8000402:	9979                	andi	a0,a0,-2
 8000404:	00847593          	andi	a1,s0,8
 8000408:	c4c8                	sw	a0,12(s1)
 800040a:	c591                	beqz	a1,8000416 <main+0x23a>
 800040c:	4521                	li	a0,8
 800040e:	00002097          	auipc	ra,0x2
 8000412:	e04080e7          	jalr	-508(ra) # 8002212 <__set_mstatus>
 8000416:	00002097          	auipc	ra,0x2
 800041a:	df6080e7          	jalr	-522(ra) # 800220c <__read_mstatus>
 800041e:	842a                	mv	s0,a0
 8000420:	4521                	li	a0,8
 8000422:	00002097          	auipc	ra,0x2
 8000426:	df6080e7          	jalr	-522(ra) # 8002218 <__clear_mstatus>
 800042a:	400214b7          	lui	s1,0x40021
 800042e:	4c88                	lw	a0,24(s1)
 8000430:	00456513          	ori	a0,a0,4
 8000434:	00847593          	andi	a1,s0,8
 8000438:	cc88                	sw	a0,24(s1)
 800043a:	c591                	beqz	a1,8000446 <main+0x26a>
 800043c:	4521                	li	a0,8
 800043e:	00002097          	auipc	ra,0x2
 8000442:	dd4080e7          	jalr	-556(ra) # 8002212 <__set_mstatus>
 8000446:	00002097          	auipc	ra,0x2
 800044a:	dc6080e7          	jalr	-570(ra) # 800220c <__read_mstatus>
 800044e:	842a                	mv	s0,a0
 8000450:	4521                	li	a0,8
 8000452:	00002097          	auipc	ra,0x2
 8000456:	dc6080e7          	jalr	-570(ra) # 8002218 <__clear_mstatus>
 800045a:	44c8                	lw	a0,12(s1)
 800045c:	00456513          	ori	a0,a0,4
 8000460:	c4c8                	sw	a0,12(s1)
 8000462:	44c8                	lw	a0,12(s1)
 8000464:	996d                	andi	a0,a0,-5
 8000466:	00847593          	andi	a1,s0,8
 800046a:	c4c8                	sw	a0,12(s1)
 800046c:	c591                	beqz	a1,8000478 <main+0x29c>
 800046e:	4521                	li	a0,8
 8000470:	00002097          	auipc	ra,0x2
 8000474:	da2080e7          	jalr	-606(ra) # 8002212 <__set_mstatus>
 8000478:	00002097          	auipc	ra,0x2
 800047c:	d94080e7          	jalr	-620(ra) # 800220c <__read_mstatus>
 8000480:	842a                	mv	s0,a0
 8000482:	4521                	li	a0,8
 8000484:	00002097          	auipc	ra,0x2
 8000488:	d94080e7          	jalr	-620(ra) # 8002218 <__clear_mstatus>
 800048c:	400114b7          	lui	s1,0x40011
 8000490:	8044a503          	lw	a0,-2044(s1) # 40010804 <_stack_start+0x20008804>
 8000494:	f0f57513          	andi	a0,a0,-241
 8000498:	0b056513          	ori	a0,a0,176
 800049c:	00847593          	andi	a1,s0,8
 80004a0:	80a4a223          	sw	a0,-2044(s1)
 80004a4:	c591                	beqz	a1,80004b0 <main+0x2d4>
 80004a6:	4521                	li	a0,8
 80004a8:	00002097          	auipc	ra,0x2
 80004ac:	d6a080e7          	jalr	-662(ra) # 8002212 <__set_mstatus>
 80004b0:	757d                	lui	a0,0xfffff
 80004b2:	0ff50913          	addi	s2,a0,255 # fffff0ff <_stack_start+0xdfff70ff>
 80004b6:	00002097          	auipc	ra,0x2
 80004ba:	d56080e7          	jalr	-682(ra) # 800220c <__read_mstatus>
 80004be:	842a                	mv	s0,a0
 80004c0:	4521                	li	a0,8
 80004c2:	00002097          	auipc	ra,0x2
 80004c6:	d56080e7          	jalr	-682(ra) # 8002218 <__clear_mstatus>
 80004ca:	8044a503          	lw	a0,-2044(s1)
 80004ce:	01257533          	and	a0,a0,s2
 80004d2:	40056513          	ori	a0,a0,1024
 80004d6:	00847593          	andi	a1,s0,8
 80004da:	80a4a223          	sw	a0,-2044(s1)
 80004de:	c591                	beqz	a1,80004ea <main+0x30e>
 80004e0:	4521                	li	a0,8
 80004e2:	00002097          	auipc	ra,0x2
 80004e6:	d30080e7          	jalr	-720(ra) # 8002212 <__set_mstatus>
 80004ea:	00002097          	auipc	ra,0x2
 80004ee:	d22080e7          	jalr	-734(ra) # 800220c <__read_mstatus>
 80004f2:	842a                	mv	s0,a0
 80004f4:	4521                	li	a0,8
 80004f6:	00002097          	auipc	ra,0x2
 80004fa:	d22080e7          	jalr	-734(ra) # 8002218 <__clear_mstatus>
 80004fe:	400214b7          	lui	s1,0x40021
 8000502:	4c88                	lw	a0,24(s1)
 8000504:	6991                	lui	s3,0x4
 8000506:	01356533          	or	a0,a0,s3
 800050a:	00847593          	andi	a1,s0,8
 800050e:	cc88                	sw	a0,24(s1)
 8000510:	c591                	beqz	a1,800051c <main+0x340>
 8000512:	4521                	li	a0,8
 8000514:	00002097          	auipc	ra,0x2
 8000518:	cfe080e7          	jalr	-770(ra) # 8002212 <__set_mstatus>
 800051c:	00002097          	auipc	ra,0x2
 8000520:	cf0080e7          	jalr	-784(ra) # 800220c <__read_mstatus>
 8000524:	842a                	mv	s0,a0
 8000526:	4521                	li	a0,8
 8000528:	00002097          	auipc	ra,0x2
 800052c:	cf0080e7          	jalr	-784(ra) # 8002218 <__clear_mstatus>
 8000530:	44c8                	lw	a0,12(s1)
 8000532:	01356533          	or	a0,a0,s3
 8000536:	c4c8                	sw	a0,12(s1)
 8000538:	44c8                	lw	a0,12(s1)
 800053a:	75f1                	lui	a1,0xffffc
 800053c:	15fd                	addi	a1,a1,-1
 800053e:	8d6d                	and	a0,a0,a1
 8000540:	00847593          	andi	a1,s0,8
 8000544:	c4c8                	sw	a0,12(s1)
 8000546:	c591                	beqz	a1,8000552 <main+0x376>
 8000548:	4521                	li	a0,8
 800054a:	00002097          	auipc	ra,0x2
 800054e:	cc8080e7          	jalr	-824(ra) # 8002212 <__set_mstatus>
 8000552:	00002097          	auipc	ra,0x2
 8000556:	cba080e7          	jalr	-838(ra) # 800220c <__read_mstatus>
 800055a:	842a                	mv	s0,a0
 800055c:	4521                	li	a0,8
 800055e:	00002097          	auipc	ra,0x2
 8000562:	cba080e7          	jalr	-838(ra) # 8002218 <__clear_mstatus>
 8000566:	400114b7          	lui	s1,0x40011
 800056a:	8044a503          	lw	a0,-2044(s1) # 40010804 <_stack_start+0x20008804>
 800056e:	f0f57513          	andi	a0,a0,-241
 8000572:	0b056513          	ori	a0,a0,176
 8000576:	00847593          	andi	a1,s0,8
 800057a:	80a4a223          	sw	a0,-2044(s1)
 800057e:	c591                	beqz	a1,800058a <main+0x3ae>
 8000580:	4521                	li	a0,8
 8000582:	00002097          	auipc	ra,0x2
 8000586:	c90080e7          	jalr	-880(ra) # 8002212 <__set_mstatus>
 800058a:	00002097          	auipc	ra,0x2
 800058e:	c82080e7          	jalr	-894(ra) # 800220c <__read_mstatus>
 8000592:	842a                	mv	s0,a0
 8000594:	4521                	li	a0,8
 8000596:	00002097          	auipc	ra,0x2
 800059a:	c82080e7          	jalr	-894(ra) # 8002218 <__clear_mstatus>
 800059e:	8044a503          	lw	a0,-2044(s1)
 80005a2:	01257533          	and	a0,a0,s2
 80005a6:	40056513          	ori	a0,a0,1024
 80005aa:	00847593          	andi	a1,s0,8
 80005ae:	80a4a223          	sw	a0,-2044(s1)
 80005b2:	c591                	beqz	a1,80005be <main+0x3e2>
 80005b4:	4521                	li	a0,8
 80005b6:	00002097          	auipc	ra,0x2
 80005ba:	c5c080e7          	jalr	-932(ra) # 8002212 <__set_mstatus>
 80005be:	40010537          	lui	a0,0x40010
 80005c2:	00052223          	sw	zero,4(a0) # 40010004 <_stack_start+0x20008004>
 80005c6:	40014537          	lui	a0,0x40014
 80005ca:	0c000593          	li	a1,192
 80005ce:	80b52a23          	sw	a1,-2028(a0) # 40013814 <_stack_start+0x2000b814>
 80005d2:	3a900593          	li	a1,937
 80005d6:	80b52423          	sw	a1,-2040(a0)
 80005da:	80c52583          	lw	a1,-2036(a0)
 80005de:	90090613          	addi	a2,s2,-1792
 80005e2:	8df1                	and	a1,a1,a2
 80005e4:	80b52623          	sw	a1,-2036(a0)
 80005e8:	81052583          	lw	a1,-2032(a0)
 80005ec:	7675                	lui	a2,0xffffd
 80005ee:	167d                	addi	a2,a2,-1
 80005f0:	8df1                	and	a1,a1,a2
 80005f2:	80b52823          	sw	a1,-2032(a0)
 80005f6:	80c52583          	lw	a1,-2036(a0)
 80005fa:	6609                	lui	a2,0x2
 80005fc:	0631                	addi	a2,a2,12
 80005fe:	8dd1                	or	a1,a1,a2
 8000600:	80b52623          	sw	a1,-2036(a0)
 8000604:	80c52583          	lw	a1,-2036(a0)
 8000608:	0205e593          	ori	a1,a1,32
 800060c:	80b52623          	sw	a1,-2036(a0)
 8000610:	00002097          	auipc	ra,0x2
 8000614:	bfc080e7          	jalr	-1028(ra) # 800220c <__read_mstatus>
 8000618:	842a                	mv	s0,a0
 800061a:	4521                	li	a0,8
 800061c:	00002097          	auipc	ra,0x2
 8000620:	bfc080e7          	jalr	-1028(ra) # 8002218 <__clear_mstatus>
 8000624:	400214b7          	lui	s1,0x40021
 8000628:	4c88                	lw	a0,24(s1)
 800062a:	01056513          	ori	a0,a0,16
 800062e:	00847593          	andi	a1,s0,8
 8000632:	cc88                	sw	a0,24(s1)
 8000634:	c591                	beqz	a1,8000640 <main+0x464>
 8000636:	4521                	li	a0,8
 8000638:	00002097          	auipc	ra,0x2
 800063c:	bda080e7          	jalr	-1062(ra) # 8002212 <__set_mstatus>
 8000640:	00002097          	auipc	ra,0x2
 8000644:	bcc080e7          	jalr	-1076(ra) # 800220c <__read_mstatus>
 8000648:	842a                	mv	s0,a0
 800064a:	4521                	li	a0,8
 800064c:	00002097          	auipc	ra,0x2
 8000650:	bcc080e7          	jalr	-1076(ra) # 8002218 <__clear_mstatus>
 8000654:	44c8                	lw	a0,12(s1)
 8000656:	01056513          	ori	a0,a0,16
 800065a:	c4c8                	sw	a0,12(s1)
 800065c:	44c8                	lw	a0,12(s1)
 800065e:	993d                	andi	a0,a0,-17
 8000660:	00847593          	andi	a1,s0,8
 8000664:	c4c8                	sw	a0,12(s1)
 8000666:	c591                	beqz	a1,8000672 <main+0x496>
 8000668:	4521                	li	a0,8
 800066a:	00002097          	auipc	ra,0x2
 800066e:	ba8080e7          	jalr	-1112(ra) # 8002212 <__set_mstatus>
 8000672:	400114b7          	lui	s1,0x40011
 8000676:	20000537          	lui	a0,0x20000
 800067a:	c888                	sw	a0,16(s1)
 800067c:	00002097          	auipc	ra,0x2
 8000680:	b90080e7          	jalr	-1136(ra) # 800220c <__read_mstatus>
 8000684:	842a                	mv	s0,a0
 8000686:	4521                	li	a0,8
 8000688:	00002097          	auipc	ra,0x2
 800068c:	b90080e7          	jalr	-1136(ra) # 8002218 <__clear_mstatus>
 8000690:	40c8                	lw	a0,4(s1)
 8000692:	ff1005b7          	lui	a1,0xff100
 8000696:	15fd                	addi	a1,a1,-1
 8000698:	8d6d                	and	a0,a0,a1
 800069a:	003005b7          	lui	a1,0x300
 800069e:	8d4d                	or	a0,a0,a1
 80006a0:	00847593          	andi	a1,s0,8
 80006a4:	c0c8                	sw	a0,4(s1)
 80006a6:	c591                	beqz	a1,80006b2 <main+0x4d6>
 80006a8:	4521                	li	a0,8
 80006aa:	00002097          	auipc	ra,0x2
 80006ae:	b68080e7          	jalr	-1176(ra) # 8002212 <__set_mstatus>
 80006b2:	00020537          	lui	a0,0x20
 80006b6:	80a4a823          	sw	a0,-2032(s1) # 40010810 <_stack_start+0x20008810>
 80006ba:	00002097          	auipc	ra,0x2
 80006be:	b52080e7          	jalr	-1198(ra) # 800220c <__read_mstatus>
 80006c2:	842a                	mv	s0,a0
 80006c4:	4521                	li	a0,8
 80006c6:	00002097          	auipc	ra,0x2
 80006ca:	b52080e7          	jalr	-1198(ra) # 8002218 <__clear_mstatus>
 80006ce:	8004a503          	lw	a0,-2048(s1)
 80006d2:	f0f57513          	andi	a0,a0,-241
 80006d6:	03056513          	ori	a0,a0,48
 80006da:	00847593          	andi	a1,s0,8
 80006de:	80a4a023          	sw	a0,-2048(s1)
 80006e2:	c591                	beqz	a1,80006ee <main+0x512>
 80006e4:	4521                	li	a0,8
 80006e6:	00002097          	auipc	ra,0x2
 80006ea:	b2c080e7          	jalr	-1236(ra) # 8002212 <__set_mstatus>
 80006ee:	400114b7          	lui	s1,0x40011
 80006f2:	00040537          	lui	a0,0x40
 80006f6:	80a4a823          	sw	a0,-2032(s1) # 40010810 <_stack_start+0x20008810>
 80006fa:	00002097          	auipc	ra,0x2
 80006fe:	b12080e7          	jalr	-1262(ra) # 800220c <__read_mstatus>
 8000702:	842a                	mv	s0,a0
 8000704:	4521                	li	a0,8
 8000706:	00002097          	auipc	ra,0x2
 800070a:	b12080e7          	jalr	-1262(ra) # 8002218 <__clear_mstatus>
 800070e:	8004a503          	lw	a0,-2048(s1)
 8000712:	01257533          	and	a0,a0,s2
 8000716:	30056513          	ori	a0,a0,768
 800071a:	00847593          	andi	a1,s0,8
 800071e:	80a4a023          	sw	a0,-2048(s1)
 8000722:	c591                	beqz	a1,800072e <main+0x552>
 8000724:	4521                	li	a0,8
 8000726:	00002097          	auipc	ra,0x2
 800072a:	aec080e7          	jalr	-1300(ra) # 8002212 <__set_mstatus>
 800072e:	00002097          	auipc	ra,0x2
 8000732:	ade080e7          	jalr	-1314(ra) # 800220c <__read_mstatus>
 8000736:	842a                	mv	s0,a0
 8000738:	4521                	li	a0,8
 800073a:	00002097          	auipc	ra,0x2
 800073e:	ade080e7          	jalr	-1314(ra) # 8002218 <__clear_mstatus>
 8000742:	200004b7          	lui	s1,0x20000
 8000746:	4505                	li	a0,1
 8000748:	00847593          	andi	a1,s0,8
 800074c:	00a48023          	sb	a0,0(s1) # 20000000 <_edata>
 8000750:	c591                	beqz	a1,800075c <main+0x580>
 8000752:	4521                	li	a0,8
 8000754:	00002097          	auipc	ra,0x2
 8000758:	abe080e7          	jalr	-1346(ra) # 8002212 <__set_mstatus>
 800075c:	6509                	lui	a0,0x2
 800075e:	b0050513          	addi	a0,a0,-1280 # 1b00 <_hart_stack_size+0x1300>
 8000762:	6591                	lui	a1,0x4
 8000764:	26458593          	addi	a1,a1,612 # 4264 <_hart_stack_size+0x3a64>
 8000768:	958a                	add	a1,a1,sp
 800076a:	85ae                	mv	a1,a1
 800076c:	cc2a                	sw	a0,24(sp)
 800076e:	952e                	add	a0,a0,a1
 8000770:	c82a                	sw	a0,16(sp)
 8000772:	40058513          	addi	a0,a1,1024
 8000776:	40050513          	addi	a0,a0,1024
 800077a:	c62a                	sw	a0,12(sp)
 800077c:	40014db7          	lui	s11,0x40014
 8000780:	0a000413          	li	s0,160
 8000784:	804d8513          	addi	a0,s11,-2044 # 40013804 <_stack_start+0x2000b804>
 8000788:	ca2a                	sw	a0,20(sp)
 800078a:	03800913          	li	s2,56
 800078e:	64410c13          	addi	s8,sp,1604
 8000792:	6505                	lui	a0,0x1
 8000794:	c6450513          	addi	a0,a0,-924 # c64 <_hart_stack_size+0x464>
 8000798:	950a                	add	a0,a0,sp
 800079a:	8baa                	mv	s7,a0
 800079c:	08002537          	lui	a0,0x8002
 80007a0:	2c850c93          	addi	s9,a0,712 # 80022c8 <.L__unnamed_1>
 80007a4:	4995                	li	s3,5
 80007a6:	03000b13          	li	s6,48
 80007aa:	6505                	lui	a0,0x1
 80007ac:	80050513          	addi	a0,a0,-2048 # 800 <_hart_stack_size>
 80007b0:	ce2a                	sw	a0,28(sp)
 80007b2:	48000a93          	li	s5,1152
 80007b6:	4a6d                	li	s4,27
 80007b8:	20a00d13          	li	s10,522
 80007bc:	a019                	j	80007c2 <main+0x5e6>
 80007be:	0a000413          	li	s0,160
 80007c2:	40011537          	lui	a0,0x40011
 80007c6:	200005b7          	lui	a1,0x20000
 80007ca:	c90c                	sw	a1,16(a0)
 80007cc:	000205b7          	lui	a1,0x20
 80007d0:	80b52823          	sw	a1,-2032(a0) # 40010810 <_stack_start+0x20008810>
 80007d4:	4591                	li	a1,4
 80007d6:	80b52823          	sw	a1,-2032(a0)
 80007da:	62000613          	li	a2,1568
 80007de:	1048                	addi	a0,sp,36
 80007e0:	4581                	li	a1,0
 80007e2:	00002097          	auipc	ra,0x2
 80007e6:	a58080e7          	jalr	-1448(ra) # 800223a <memset>
 80007ea:	800da503          	lw	a0,-2048(s11)
 80007ee:	00f57593          	andi	a1,a0,15
 80007f2:	c199                	beqz	a1,80007f8 <main+0x61c>
 80007f4:	5620106f          	j	8001d56 <main+0x1b7a>
 80007f8:	02057513          	andi	a0,a0,32
 80007fc:	d57d                	beqz	a0,80007ea <main+0x60e>
 80007fe:	804dc503          	lbu	a0,-2044(s11)
 8000802:	fe8514e3          	bne	a0,s0,80007ea <main+0x60e>
 8000806:	00002097          	auipc	ra,0x2
 800080a:	a06080e7          	jalr	-1530(ra) # 800220c <__read_mstatus>
 800080e:	d02a                	sw	a0,32(sp)
 8000810:	4521                	li	a0,8
 8000812:	00002097          	auipc	ra,0x2
 8000816:	a06080e7          	jalr	-1530(ra) # 8002218 <__clear_mstatus>
 800081a:	0004c503          	lbu	a0,0(s1)
 800081e:	1040                	addi	s0,sp,36
 8000820:	44f1                	li	s1,28
 8000822:	c919                	beqz	a0,8000838 <main+0x65c>
 8000824:	800da503          	lw	a0,-2048(s11)
 8000828:	08057513          	andi	a0,a0,128
 800082c:	dd65                	beqz	a0,8000824 <main+0x648>
 800082e:	4552                	lw	a0,20(sp)
 8000830:	0a000593          	li	a1,160
 8000834:	00b50023          	sb	a1,0(a0)
 8000838:	5502                	lw	a0,32(sp)
 800083a:	8921                	andi	a0,a0,8
 800083c:	c519                	beqz	a0,800084a <main+0x66e>
 800083e:	4521                	li	a0,8
 8000840:	00002097          	auipc	ra,0x2
 8000844:	9d2080e7          	jalr	-1582(ra) # 8002212 <__set_mstatus>
 8000848:	44f1                	li	s1,28
 800084a:	4501                	li	a0,0
 800084c:	4601                	li	a2,0
 800084e:	00150593          	addi	a1,a0,1
 8000852:	00160693          	addi	a3,a2,1 # 2001 <_hart_stack_size+0x1801>
 8000856:	800da703          	lw	a4,-2048(s11)
 800085a:	00f77793          	andi	a5,a4,15
 800085e:	c399                	beqz	a5,8000864 <main+0x688>
 8000860:	4f60106f          	j	8001d56 <main+0x1b7a>
 8000864:	02077713          	andi	a4,a4,32
 8000868:	d77d                	beqz	a4,8000856 <main+0x67a>
 800086a:	804dc703          	lbu	a4,-2044(s11)
 800086e:	070a                	slli	a4,a4,0x2
 8000870:	032507b3          	mul	a5,a0,s2
 8000874:	97a2                	add	a5,a5,s0
 8000876:	0606                	slli	a2,a2,0x1
 8000878:	963e                	add	a2,a2,a5
 800087a:	00e61023          	sh	a4,0(a2)
 800087e:	8636                	mv	a2,a3
 8000880:	fc9699e3          	bne	a3,s1,8000852 <main+0x676>
 8000884:	852e                	mv	a0,a1
 8000886:	fc9593e3          	bne	a1,s1,800084c <main+0x670>
 800088a:	6509                	lui	a0,0x2
 800088c:	400115b7          	lui	a1,0x40011
 8000890:	c988                	sw	a0,16(a1)
 8000892:	4509                	li	a0,2
 8000894:	80a5a823          	sw	a0,-2032(a1) # 40010810 <_stack_start+0x20008810>
 8000898:	00040537          	lui	a0,0x40
 800089c:	80a5a823          	sw	a0,-2032(a1)
 80008a0:	62000613          	li	a2,1568
 80008a4:	8562                	mv	a0,s8
 80008a6:	85a2                	mv	a1,s0
 80008a8:	00002097          	auipc	ra,0x2
 80008ac:	97c080e7          	jalr	-1668(ra) # 8002224 <memcpy>
 80008b0:	855e                	mv	a0,s7
 80008b2:	4581                	li	a1,0
 80008b4:	4662                	lw	a2,24(sp)
 80008b6:	00002097          	auipc	ra,0x2
 80008ba:	984080e7          	jalr	-1660(ra) # 800223a <memset>
 80008be:	4581                	li	a1,0
 80008c0:	42e1                	li	t0,24
 80008c2:	4781                	li	a5,0
 80008c4:	00158813          	addi	a6,a1,1
 80008c8:	4701                	li	a4,0
 80008ca:	00178893          	addi	a7,a5,1
 80008ce:	019704b3          	add	s1,a4,s9
 80008d2:	0044c503          	lbu	a0,4(s1)
 80008d6:	00a9f463          	bgeu	s3,a0,80008de <main+0x702>
 80008da:	4700106f          	j	8001d4a <main+0x1b6e>
 80008de:	0024c683          	lbu	a3,2(s1)
 80008e2:	00f6f613          	andi	a2,a3,15
 80008e6:	962e                	add	a2,a2,a1
 80008e8:	00ca7463          	bgeu	s4,a2,80008f0 <main+0x714>
 80008ec:	49e0106f          	j	8001d8a <main+0x1bae>
 80008f0:	8291                	srli	a3,a3,0x4
 80008f2:	96be                	add	a3,a3,a5
 80008f4:	00da7463          	bgeu	s4,a3,80008fc <main+0x720>
 80008f8:	4a00106f          	j	8001d98 <main+0x1bbc>
 80008fc:	03658433          	mul	s0,a1,s6
 8000900:	03550533          	mul	a0,a0,s5
 8000904:	955e                	add	a0,a0,s7
 8000906:	9522                	add	a0,a0,s0
 8000908:	03260633          	mul	a2,a2,s2
 800090c:	9662                	add	a2,a2,s8
 800090e:	0686                	slli	a3,a3,0x1
 8000910:	9636                	add	a2,a2,a3
 8000912:	00061603          	lh	a2,0(a2)
 8000916:	00049683          	lh	a3,0(s1)
 800091a:	00179493          	slli	s1,a5,0x1
 800091e:	9526                	add	a0,a0,s1
 8000920:	00055483          	lhu	s1,0(a0) # 40000 <_hart_stack_size+0x3f800>
 8000924:	02c68633          	mul	a2,a3,a2
 8000928:	41f65693          	srai	a3,a2,0x1f
 800092c:	82d9                	srli	a3,a3,0x16
 800092e:	9636                	add	a2,a2,a3
 8000930:	8229                	srli	a2,a2,0xa
 8000932:	9626                	add	a2,a2,s1
 8000934:	0719                	addi	a4,a4,6
 8000936:	00c51023          	sh	a2,0(a0)
 800093a:	f9a71ae3          	bne	a4,s10,80008ce <main+0x6f2>
 800093e:	87c6                	mv	a5,a7
 8000940:	f85894e3          	bne	a7,t0,80008c8 <main+0x6ec>
 8000944:	85c2                	mv	a1,a6
 8000946:	f6581ee3          	bne	a6,t0,80008c2 <main+0x6e6>
 800094a:	6511                	lui	a0,0x4
 800094c:	26450513          	addi	a0,a0,612 # 4264 <_hart_stack_size+0x3a64>
 8000950:	950a                	add	a0,a0,sp
 8000952:	84aa                	mv	s1,a0
 8000954:	8526                	mv	a0,s1
 8000956:	85de                	mv	a1,s7
 8000958:	4462                	lw	s0,24(sp)
 800095a:	8622                	mv	a2,s0
 800095c:	00002097          	auipc	ra,0x2
 8000960:	8c8080e7          	jalr	-1848(ra) # 8002224 <memcpy>
 8000964:	85a6                	mv	a1,s1
 8000966:	8622                	mv	a2,s0
 8000968:	4481                	li	s1,0
 800096a:	4501                	li	a0,0
 800096c:	4681                	li	a3,0
 800096e:	872e                	mv	a4,a1
 8000970:	42c2                	lw	t0,16(sp)
 8000972:	537d                	li	t1,-1
 8000974:	ce89                	beqz	a3,800098e <main+0x7b2>
 8000976:	87b6                	mv	a5,a3
 8000978:	00d50b63          	beq	a0,a3,800098e <main+0x7b2>
 800097c:	00079403          	lh	s0,0(a5)
 8000980:	00278693          	addi	a3,a5,2
 8000984:	fe8348e3          	blt	t1,s0,8000974 <main+0x798>
 8000988:	00079023          	sh	zero,0(a5)
 800098c:	b7e5                	j	8000974 <main+0x798>
 800098e:	00a036b3          	snez	a3,a0
 8000992:	011547b3          	xor	a5,a0,a7
 8000996:	00f037b3          	snez	a5,a5
 800099a:	8efd                	and	a3,a3,a5
 800099c:	e68d                	bnez	a3,80009c6 <main+0x7ea>
 800099e:	00903533          	snez	a0,s1
 80009a2:	0104c6b3          	xor	a3,s1,a6
 80009a6:	00d036b3          	snez	a3,a3
 80009aa:	8d75                	and	a0,a0,a3
 80009ac:	e901                	bnez	a0,80009bc <main+0x7e0>
 80009ae:	02570163          	beq	a4,t0,80009d0 <main+0x7f4>
 80009b2:	84ba                	mv	s1,a4
 80009b4:	9732                	add	a4,a4,a2
 80009b6:	dce5                	beqz	s1,80009ae <main+0x7d2>
 80009b8:	00c48833          	add	a6,s1,a2
 80009bc:	c891                	beqz	s1,80009d0 <main+0x7f4>
 80009be:	48048893          	addi	a7,s1,1152
 80009c2:	8526                	mv	a0,s1
 80009c4:	84c6                	mv	s1,a7
 80009c6:	c509                	beqz	a0,80009d0 <main+0x7f4>
 80009c8:	86aa                	mv	a3,a0
 80009ca:	03050513          	addi	a0,a0,48
 80009ce:	b75d                	j	8000974 <main+0x798>
 80009d0:	6509                	lui	a0,0x2
 80009d2:	76450513          	addi	a0,a0,1892 # 2764 <_hart_stack_size+0x1f64>
 80009d6:	950a                	add	a0,a0,sp
 80009d8:	852a                	mv	a0,a0
 80009da:	00002097          	auipc	ra,0x2
 80009de:	84a080e7          	jalr	-1974(ra) # 8002224 <memcpy>
 80009e2:	6c000613          	li	a2,1728
 80009e6:	6519                	lui	a0,0x6
 80009e8:	d6450513          	addi	a0,a0,-668 # 5d64 <_hart_stack_size+0x5564>
 80009ec:	950a                	add	a0,a0,sp
 80009ee:	852a                	mv	a0,a0
 80009f0:	4581                	li	a1,0
 80009f2:	00002097          	auipc	ra,0x2
 80009f6:	848080e7          	jalr	-1976(ra) # 800223a <memset>
 80009fa:	4501                	li	a0,0
 80009fc:	4685                	li	a3,1
 80009fe:	6599                	lui	a1,0x6
 8000a00:	d7058593          	addi	a1,a1,-656 # 5d70 <_hart_stack_size+0x5570>
 8000a04:	958a                	add	a1,a1,sp
 8000a06:	85ae                	mv	a1,a1
 8000a08:	6609                	lui	a2,0x2
 8000a0a:	79460613          	addi	a2,a2,1940 # 2794 <_hart_stack_size+0x1f94>
 8000a0e:	960a                	add	a2,a2,sp
 8000a10:	88b2                	mv	a7,a2
 8000a12:	12000293          	li	t0,288
 8000a16:	4319                	li	t1,6
 8000a18:	6619                	lui	a2,0x6
 8000a1a:	42460613          	addi	a2,a2,1060 # 6424 <_hart_stack_size+0x5c24>
 8000a1e:	960a                	add	a2,a2,sp
 8000a20:	83b2                	mv	t2,a2
 8000a22:	a811                	j	8000a36 <main+0x85a>
 8000a24:	00553693          	sltiu	a3,a0,5
 8000a28:	48088893          	addi	a7,a7,1152
 8000a2c:	12058593          	addi	a1,a1,288
 8000a30:	8542                	mv	a0,a6
 8000a32:	40680363          	beq	a6,t1,8000e38 <main+0xc5c>
 8000a36:	4781                	li	a5,0
 8000a38:	00150813          	addi	a6,a0,1
 8000a3c:	8646                	mv	a2,a7
 8000a3e:	a801                	j	8000a4e <main+0x872>
 8000a40:	00971523          	sh	s1,10(a4) # ffff000a <_stack_start+0xdffe800a>
 8000a44:	07e1                	addi	a5,a5,24
 8000a46:	06060613          	addi	a2,a2,96
 8000a4a:	fc578de3          	beq	a5,t0,8000a24 <main+0x848>
 8000a4e:	0016f713          	andi	a4,a3,1
 8000a52:	e319                	bnez	a4,8000a58 <main+0x87c>
 8000a54:	2f60106f          	j	8001d4a <main+0x1b6e>
 8000a58:	fd061403          	lh	s0,-48(a2)
 8000a5c:	1c805063          	blez	s0,8000c1c <main+0xa40>
 8000a60:	fd261703          	lh	a4,-46(a2)
 8000a64:	01041493          	slli	s1,s0,0x10
 8000a68:	84c1                	srai	s1,s1,0x10
 8000a6a:	1c975163          	bge	a4,s1,8000c2c <main+0xa50>
 8000a6e:	00061703          	lh	a4,0(a2)
 8000a72:	01041493          	slli	s1,s0,0x10
 8000a76:	84c1                	srai	s1,s1,0x10
 8000a78:	1c975263          	bge	a4,s1,8000c3c <main+0xa60>
 8000a7c:	00261703          	lh	a4,2(a2)
 8000a80:	01041493          	slli	s1,s0,0x10
 8000a84:	84c1                	srai	s1,s1,0x10
 8000a86:	1c975363          	bge	a4,s1,8000c4c <main+0xa70>
 8000a8a:	fd461483          	lh	s1,-44(a2)
 8000a8e:	00f58733          	add	a4,a1,a5
 8000a92:	fe871a23          	sh	s0,-12(a4)
 8000a96:	1c905463          	blez	s1,8000c5e <main+0xa82>
 8000a9a:	fd661403          	lh	s0,-42(a2)
 8000a9e:	1c945563          	bge	s0,s1,8000c68 <main+0xa8c>
 8000aa2:	00461403          	lh	s0,4(a2)
 8000aa6:	1c945663          	bge	s0,s1,8000c72 <main+0xa96>
 8000aaa:	00661403          	lh	s0,6(a2)
 8000aae:	1c945763          	bge	s0,s1,8000c7c <main+0xaa0>
 8000ab2:	fd861403          	lh	s0,-40(a2)
 8000ab6:	fe971b23          	sh	s1,-10(a4)
 8000aba:	1c805863          	blez	s0,8000c8a <main+0xaae>
 8000abe:	fda61483          	lh	s1,-38(a2)
 8000ac2:	1c84d963          	bge	s1,s0,8000c94 <main+0xab8>
 8000ac6:	00861483          	lh	s1,8(a2)
 8000aca:	1c84da63          	bge	s1,s0,8000c9e <main+0xac2>
 8000ace:	00a61483          	lh	s1,10(a2)
 8000ad2:	1c84db63          	bge	s1,s0,8000ca8 <main+0xacc>
 8000ad6:	fdc61483          	lh	s1,-36(a2)
 8000ada:	fe871c23          	sh	s0,-8(a4)
 8000ade:	1c905c63          	blez	s1,8000cb6 <main+0xada>
 8000ae2:	fde61403          	lh	s0,-34(a2)
 8000ae6:	1c945d63          	bge	s0,s1,8000cc0 <main+0xae4>
 8000aea:	00c61403          	lh	s0,12(a2)
 8000aee:	1c945e63          	bge	s0,s1,8000cca <main+0xaee>
 8000af2:	00e61403          	lh	s0,14(a2)
 8000af6:	1c945f63          	bge	s0,s1,8000cd4 <main+0xaf8>
 8000afa:	fe061403          	lh	s0,-32(a2)
 8000afe:	fe971d23          	sh	s1,-6(a4)
 8000b02:	1e805063          	blez	s0,8000ce2 <main+0xb06>
 8000b06:	fe261483          	lh	s1,-30(a2)
 8000b0a:	1e84d163          	bge	s1,s0,8000cec <main+0xb10>
 8000b0e:	01061483          	lh	s1,16(a2)
 8000b12:	1e84d263          	bge	s1,s0,8000cf6 <main+0xb1a>
 8000b16:	01261483          	lh	s1,18(a2)
 8000b1a:	1e84d363          	bge	s1,s0,8000d00 <main+0xb24>
 8000b1e:	fe461483          	lh	s1,-28(a2)
 8000b22:	fe871e23          	sh	s0,-4(a4)
 8000b26:	1e905463          	blez	s1,8000d0e <main+0xb32>
 8000b2a:	fe661403          	lh	s0,-26(a2)
 8000b2e:	1e945563          	bge	s0,s1,8000d18 <main+0xb3c>
 8000b32:	01461403          	lh	s0,20(a2)
 8000b36:	1e945663          	bge	s0,s1,8000d22 <main+0xb46>
 8000b3a:	01661403          	lh	s0,22(a2)
 8000b3e:	1e945763          	bge	s0,s1,8000d2c <main+0xb50>
 8000b42:	fe861403          	lh	s0,-24(a2)
 8000b46:	fe971f23          	sh	s1,-2(a4)
 8000b4a:	1e805863          	blez	s0,8000d3a <main+0xb5e>
 8000b4e:	fea61483          	lh	s1,-22(a2)
 8000b52:	1e84d963          	bge	s1,s0,8000d44 <main+0xb68>
 8000b56:	01861483          	lh	s1,24(a2)
 8000b5a:	1e84da63          	bge	s1,s0,8000d4e <main+0xb72>
 8000b5e:	01a61483          	lh	s1,26(a2)
 8000b62:	1e84db63          	bge	s1,s0,8000d58 <main+0xb7c>
 8000b66:	fec61483          	lh	s1,-20(a2)
 8000b6a:	00871023          	sh	s0,0(a4)
 8000b6e:	1e905c63          	blez	s1,8000d66 <main+0xb8a>
 8000b72:	fee61403          	lh	s0,-18(a2)
 8000b76:	1e945d63          	bge	s0,s1,8000d70 <main+0xb94>
 8000b7a:	01c61403          	lh	s0,28(a2)
 8000b7e:	1e945e63          	bge	s0,s1,8000d7a <main+0xb9e>
 8000b82:	01e61403          	lh	s0,30(a2)
 8000b86:	1e945f63          	bge	s0,s1,8000d84 <main+0xba8>
 8000b8a:	ff061403          	lh	s0,-16(a2)
 8000b8e:	00971123          	sh	s1,2(a4)
 8000b92:	20805063          	blez	s0,8000d92 <main+0xbb6>
 8000b96:	ff261483          	lh	s1,-14(a2)
 8000b9a:	2084d163          	bge	s1,s0,8000d9c <main+0xbc0>
 8000b9e:	02061483          	lh	s1,32(a2)
 8000ba2:	2084d263          	bge	s1,s0,8000da6 <main+0xbca>
 8000ba6:	02261483          	lh	s1,34(a2)
 8000baa:	2084d363          	bge	s1,s0,8000db0 <main+0xbd4>
 8000bae:	ff461483          	lh	s1,-12(a2)
 8000bb2:	00871223          	sh	s0,4(a4)
 8000bb6:	20905463          	blez	s1,8000dbe <main+0xbe2>
 8000bba:	ff661403          	lh	s0,-10(a2)
 8000bbe:	20945563          	bge	s0,s1,8000dc8 <main+0xbec>
 8000bc2:	02461403          	lh	s0,36(a2)
 8000bc6:	20945663          	bge	s0,s1,8000dd2 <main+0xbf6>
 8000bca:	02661403          	lh	s0,38(a2)
 8000bce:	20945763          	bge	s0,s1,8000ddc <main+0xc00>
 8000bd2:	ff861403          	lh	s0,-8(a2)
 8000bd6:	00971323          	sh	s1,6(a4)
 8000bda:	20805863          	blez	s0,8000dea <main+0xc0e>
 8000bde:	ffa61483          	lh	s1,-6(a2)
 8000be2:	2084d963          	bge	s1,s0,8000df4 <main+0xc18>
 8000be6:	02861483          	lh	s1,40(a2)
 8000bea:	2084da63          	bge	s1,s0,8000dfe <main+0xc22>
 8000bee:	02a61483          	lh	s1,42(a2)
 8000bf2:	2084db63          	bge	s1,s0,8000e08 <main+0xc2c>
 8000bf6:	ffc61483          	lh	s1,-4(a2)
 8000bfa:	00871423          	sh	s0,8(a4)
 8000bfe:	20905c63          	blez	s1,8000e16 <main+0xc3a>
 8000c02:	ffe61403          	lh	s0,-2(a2)
 8000c06:	20945d63          	bge	s0,s1,8000e20 <main+0xc44>
 8000c0a:	02c61403          	lh	s0,44(a2)
 8000c0e:	20945e63          	bge	s0,s1,8000e2a <main+0xc4e>
 8000c12:	02e61403          	lh	s0,46(a2)
 8000c16:	e29445e3          	blt	s0,s1,8000a40 <main+0x864>
 8000c1a:	ac29                	j	8000e34 <main+0xc58>
 8000c1c:	4401                	li	s0,0
 8000c1e:	fd261703          	lh	a4,-46(a2)
 8000c22:	01041493          	slli	s1,s0,0x10
 8000c26:	84c1                	srai	s1,s1,0x10
 8000c28:	e49743e3          	blt	a4,s1,8000a6e <main+0x892>
 8000c2c:	843a                	mv	s0,a4
 8000c2e:	00061703          	lh	a4,0(a2)
 8000c32:	01041493          	slli	s1,s0,0x10
 8000c36:	84c1                	srai	s1,s1,0x10
 8000c38:	e49742e3          	blt	a4,s1,8000a7c <main+0x8a0>
 8000c3c:	843a                	mv	s0,a4
 8000c3e:	00261703          	lh	a4,2(a2)
 8000c42:	01041493          	slli	s1,s0,0x10
 8000c46:	84c1                	srai	s1,s1,0x10
 8000c48:	e49741e3          	blt	a4,s1,8000a8a <main+0x8ae>
 8000c4c:	843a                	mv	s0,a4
 8000c4e:	fd461483          	lh	s1,-44(a2)
 8000c52:	00f58733          	add	a4,a1,a5
 8000c56:	fe871a23          	sh	s0,-12(a4)
 8000c5a:	e49040e3          	bgtz	s1,8000a9a <main+0x8be>
 8000c5e:	4481                	li	s1,0
 8000c60:	fd661403          	lh	s0,-42(a2)
 8000c64:	e2944fe3          	blt	s0,s1,8000aa2 <main+0x8c6>
 8000c68:	84a2                	mv	s1,s0
 8000c6a:	00461403          	lh	s0,4(a2)
 8000c6e:	e2944ee3          	blt	s0,s1,8000aaa <main+0x8ce>
 8000c72:	84a2                	mv	s1,s0
 8000c74:	00661403          	lh	s0,6(a2)
 8000c78:	e2944de3          	blt	s0,s1,8000ab2 <main+0x8d6>
 8000c7c:	84a2                	mv	s1,s0
 8000c7e:	fd861403          	lh	s0,-40(a2)
 8000c82:	fe971b23          	sh	s1,-10(a4)
 8000c86:	e2804ce3          	bgtz	s0,8000abe <main+0x8e2>
 8000c8a:	4401                	li	s0,0
 8000c8c:	fda61483          	lh	s1,-38(a2)
 8000c90:	e284cbe3          	blt	s1,s0,8000ac6 <main+0x8ea>
 8000c94:	8426                	mv	s0,s1
 8000c96:	00861483          	lh	s1,8(a2)
 8000c9a:	e284cae3          	blt	s1,s0,8000ace <main+0x8f2>
 8000c9e:	8426                	mv	s0,s1
 8000ca0:	00a61483          	lh	s1,10(a2)
 8000ca4:	e284c9e3          	blt	s1,s0,8000ad6 <main+0x8fa>
 8000ca8:	8426                	mv	s0,s1
 8000caa:	fdc61483          	lh	s1,-36(a2)
 8000cae:	fe871c23          	sh	s0,-8(a4)
 8000cb2:	e29048e3          	bgtz	s1,8000ae2 <main+0x906>
 8000cb6:	4481                	li	s1,0
 8000cb8:	fde61403          	lh	s0,-34(a2)
 8000cbc:	e29447e3          	blt	s0,s1,8000aea <main+0x90e>
 8000cc0:	84a2                	mv	s1,s0
 8000cc2:	00c61403          	lh	s0,12(a2)
 8000cc6:	e29446e3          	blt	s0,s1,8000af2 <main+0x916>
 8000cca:	84a2                	mv	s1,s0
 8000ccc:	00e61403          	lh	s0,14(a2)
 8000cd0:	e29445e3          	blt	s0,s1,8000afa <main+0x91e>
 8000cd4:	84a2                	mv	s1,s0
 8000cd6:	fe061403          	lh	s0,-32(a2)
 8000cda:	fe971d23          	sh	s1,-6(a4)
 8000cde:	e28044e3          	bgtz	s0,8000b06 <main+0x92a>
 8000ce2:	4401                	li	s0,0
 8000ce4:	fe261483          	lh	s1,-30(a2)
 8000ce8:	e284c3e3          	blt	s1,s0,8000b0e <main+0x932>
 8000cec:	8426                	mv	s0,s1
 8000cee:	01061483          	lh	s1,16(a2)
 8000cf2:	e284c2e3          	blt	s1,s0,8000b16 <main+0x93a>
 8000cf6:	8426                	mv	s0,s1
 8000cf8:	01261483          	lh	s1,18(a2)
 8000cfc:	e284c1e3          	blt	s1,s0,8000b1e <main+0x942>
 8000d00:	8426                	mv	s0,s1
 8000d02:	fe461483          	lh	s1,-28(a2)
 8000d06:	fe871e23          	sh	s0,-4(a4)
 8000d0a:	e29040e3          	bgtz	s1,8000b2a <main+0x94e>
 8000d0e:	4481                	li	s1,0
 8000d10:	fe661403          	lh	s0,-26(a2)
 8000d14:	e0944fe3          	blt	s0,s1,8000b32 <main+0x956>
 8000d18:	84a2                	mv	s1,s0
 8000d1a:	01461403          	lh	s0,20(a2)
 8000d1e:	e0944ee3          	blt	s0,s1,8000b3a <main+0x95e>
 8000d22:	84a2                	mv	s1,s0
 8000d24:	01661403          	lh	s0,22(a2)
 8000d28:	e0944de3          	blt	s0,s1,8000b42 <main+0x966>
 8000d2c:	84a2                	mv	s1,s0
 8000d2e:	fe861403          	lh	s0,-24(a2)
 8000d32:	fe971f23          	sh	s1,-2(a4)
 8000d36:	e0804ce3          	bgtz	s0,8000b4e <main+0x972>
 8000d3a:	4401                	li	s0,0
 8000d3c:	fea61483          	lh	s1,-22(a2)
 8000d40:	e084cbe3          	blt	s1,s0,8000b56 <main+0x97a>
 8000d44:	8426                	mv	s0,s1
 8000d46:	01861483          	lh	s1,24(a2)
 8000d4a:	e084cae3          	blt	s1,s0,8000b5e <main+0x982>
 8000d4e:	8426                	mv	s0,s1
 8000d50:	01a61483          	lh	s1,26(a2)
 8000d54:	e084c9e3          	blt	s1,s0,8000b66 <main+0x98a>
 8000d58:	8426                	mv	s0,s1
 8000d5a:	fec61483          	lh	s1,-20(a2)
 8000d5e:	00871023          	sh	s0,0(a4)
 8000d62:	e09048e3          	bgtz	s1,8000b72 <main+0x996>
 8000d66:	4481                	li	s1,0
 8000d68:	fee61403          	lh	s0,-18(a2)
 8000d6c:	e09447e3          	blt	s0,s1,8000b7a <main+0x99e>
 8000d70:	84a2                	mv	s1,s0
 8000d72:	01c61403          	lh	s0,28(a2)
 8000d76:	e09446e3          	blt	s0,s1,8000b82 <main+0x9a6>
 8000d7a:	84a2                	mv	s1,s0
 8000d7c:	01e61403          	lh	s0,30(a2)
 8000d80:	e09445e3          	blt	s0,s1,8000b8a <main+0x9ae>
 8000d84:	84a2                	mv	s1,s0
 8000d86:	ff061403          	lh	s0,-16(a2)
 8000d8a:	00971123          	sh	s1,2(a4)
 8000d8e:	e08044e3          	bgtz	s0,8000b96 <main+0x9ba>
 8000d92:	4401                	li	s0,0
 8000d94:	ff261483          	lh	s1,-14(a2)
 8000d98:	e084c3e3          	blt	s1,s0,8000b9e <main+0x9c2>
 8000d9c:	8426                	mv	s0,s1
 8000d9e:	02061483          	lh	s1,32(a2)
 8000da2:	e084c2e3          	blt	s1,s0,8000ba6 <main+0x9ca>
 8000da6:	8426                	mv	s0,s1
 8000da8:	02261483          	lh	s1,34(a2)
 8000dac:	e084c1e3          	blt	s1,s0,8000bae <main+0x9d2>
 8000db0:	8426                	mv	s0,s1
 8000db2:	ff461483          	lh	s1,-12(a2)
 8000db6:	00871223          	sh	s0,4(a4)
 8000dba:	e09040e3          	bgtz	s1,8000bba <main+0x9de>
 8000dbe:	4481                	li	s1,0
 8000dc0:	ff661403          	lh	s0,-10(a2)
 8000dc4:	de944fe3          	blt	s0,s1,8000bc2 <main+0x9e6>
 8000dc8:	84a2                	mv	s1,s0
 8000dca:	02461403          	lh	s0,36(a2)
 8000dce:	de944ee3          	blt	s0,s1,8000bca <main+0x9ee>
 8000dd2:	84a2                	mv	s1,s0
 8000dd4:	02661403          	lh	s0,38(a2)
 8000dd8:	de944de3          	blt	s0,s1,8000bd2 <main+0x9f6>
 8000ddc:	84a2                	mv	s1,s0
 8000dde:	ff861403          	lh	s0,-8(a2)
 8000de2:	00971323          	sh	s1,6(a4)
 8000de6:	de804ce3          	bgtz	s0,8000bde <main+0xa02>
 8000dea:	4401                	li	s0,0
 8000dec:	ffa61483          	lh	s1,-6(a2)
 8000df0:	de84cbe3          	blt	s1,s0,8000be6 <main+0xa0a>
 8000df4:	8426                	mv	s0,s1
 8000df6:	02861483          	lh	s1,40(a2)
 8000dfa:	de84cae3          	blt	s1,s0,8000bee <main+0xa12>
 8000dfe:	8426                	mv	s0,s1
 8000e00:	02a61483          	lh	s1,42(a2)
 8000e04:	de84c9e3          	blt	s1,s0,8000bf6 <main+0xa1a>
 8000e08:	8426                	mv	s0,s1
 8000e0a:	ffc61483          	lh	s1,-4(a2)
 8000e0e:	00871423          	sh	s0,8(a4)
 8000e12:	de9048e3          	bgtz	s1,8000c02 <main+0xa26>
 8000e16:	4481                	li	s1,0
 8000e18:	ffe61403          	lh	s0,-2(a2)
 8000e1c:	de9447e3          	blt	s0,s1,8000c0a <main+0xa2e>
 8000e20:	84a2                	mv	s1,s0
 8000e22:	02c61403          	lh	s0,44(a2)
 8000e26:	de9446e3          	blt	s0,s1,8000c12 <main+0xa36>
 8000e2a:	84a2                	mv	s1,s0
 8000e2c:	02e61403          	lh	s0,46(a2)
 8000e30:	c09448e3          	blt	s0,s1,8000a40 <main+0x864>
 8000e34:	84a2                	mv	s1,s0
 8000e36:	b129                	j	8000a40 <main+0x864>
 8000e38:	851e                	mv	a0,t2
 8000e3a:	4581                	li	a1,0
 8000e3c:	4672                	lw	a2,28(sp)
 8000e3e:	00001097          	auipc	ra,0x1
 8000e42:	3fc080e7          	jalr	1020(ra) # 800223a <memset>
 8000e46:	6519                	lui	a0,0x6
 8000e48:	42450513          	addi	a0,a0,1060 # 6424 <_hart_stack_size+0x5c24>
 8000e4c:	950a                	add	a0,a0,sp
 8000e4e:	8f2a                	mv	t5,a0
 8000e50:	12000e93          	li	t4,288
 8000e54:	4881                	li	a7,0
 8000e56:	43e1                	li	t2,24
 8000e58:	6519                	lui	a0,0x6
 8000e5a:	d6450513          	addi	a0,a0,-668 # 5d64 <_hart_stack_size+0x5564>
 8000e5e:	950a                	add	a0,a0,sp
 8000e60:	8e2a                	mv	t3,a0
 8000e62:	4fbd                	li	t6,15
 8000e64:	40ad                	li	ra,11
 8000e66:	4401                	li	s0,0
 8000e68:	00188513          	addi	a0,a7,1
 8000e6c:	d02a                	sw	a0,32(sp)
 8000e6e:	019407b3          	add	a5,s0,s9
 8000e72:	20e7c603          	lbu	a2,526(a5)
 8000e76:	72cfe8e3          	bltu	t6,a2,8001da6 <main+0x1bca>
 8000e7a:	008c8533          	add	a0,s9,s0
 8000e7e:	20d54503          	lbu	a0,525(a0)
 8000e82:	6ca9e4e3          	bltu	s3,a0,8001d4a <main+0x1b6e>
 8000e86:	20c7c583          	lbu	a1,524(a5)
 8000e8a:	00f5f693          	andi	a3,a1,15
 8000e8e:	96c6                	add	a3,a3,a7
 8000e90:	72d0e2e3          	bltu	ra,a3,8001db4 <main+0x1bd8>
 8000e94:	0045d713          	srli	a4,a1,0x4
 8000e98:	0bf00493          	li	s1,191
 8000e9c:	72b4e3e3          	bltu	s1,a1,8001dc2 <main+0x1be6>
 8000ea0:	00761593          	slli	a1,a2,0x7
 8000ea4:	95fa                	add	a1,a1,t5
 8000ea6:	02768633          	mul	a2,a3,t2
 8000eaa:	03d50533          	mul	a0,a0,t4
 8000eae:	9572                	add	a0,a0,t3
 8000eb0:	9532                	add	a0,a0,a2
 8000eb2:	00171613          	slli	a2,a4,0x1
 8000eb6:	9532                	add	a0,a0,a2
 8000eb8:	00051503          	lh	a0,0(a0)
 8000ebc:	20a79603          	lh	a2,522(a5)
 8000ec0:	00489293          	slli	t0,a7,0x4
 8000ec4:	9596                	add	a1,a1,t0
 8000ec6:	0005d683          	lhu	a3,0(a1)
 8000eca:	02a60533          	mul	a0,a2,a0
 8000ece:	41f55613          	srai	a2,a0,0x1f
 8000ed2:	8259                	srli	a2,a2,0x16
 8000ed4:	9532                	add	a0,a0,a2
 8000ed6:	8129                	srli	a0,a0,0xa
 8000ed8:	9536                	add	a0,a0,a3
 8000eda:	0419                	addi	s0,s0,6
 8000edc:	00a59023          	sh	a0,0(a1)
 8000ee0:	4aa00813          	li	a6,1194
 8000ee4:	f90415e3          	bne	s0,a6,8000e6e <main+0xc92>
 8000ee8:	4401                	li	s0,0
 8000eea:	019404b3          	add	s1,s0,s9
 8000eee:	20e4c603          	lbu	a2,526(s1)
 8000ef2:	6acfeae3          	bltu	t6,a2,8001da6 <main+0x1bca>
 8000ef6:	008c8533          	add	a0,s9,s0
 8000efa:	20d54503          	lbu	a0,525(a0)
 8000efe:	64a9e6e3          	bltu	s3,a0,8001d4a <main+0x1b6e>
 8000f02:	20c4c583          	lbu	a1,524(s1)
 8000f06:	00f5f693          	andi	a3,a1,15
 8000f0a:	96c6                	add	a3,a3,a7
 8000f0c:	6ad0e4e3          	bltu	ra,a3,8001db4 <main+0x1bd8>
 8000f10:	0045d713          	srli	a4,a1,0x4
 8000f14:	0705                	addi	a4,a4,1
 8000f16:	0af00313          	li	t1,175
 8000f1a:	6ab364e3          	bltu	t1,a1,8001dc2 <main+0x1be6>
 8000f1e:	00761593          	slli	a1,a2,0x7
 8000f22:	95fa                	add	a1,a1,t5
 8000f24:	02768633          	mul	a2,a3,t2
 8000f28:	03d50533          	mul	a0,a0,t4
 8000f2c:	9572                	add	a0,a0,t3
 8000f2e:	9532                	add	a0,a0,a2
 8000f30:	00171613          	slli	a2,a4,0x1
 8000f34:	9532                	add	a0,a0,a2
 8000f36:	00051503          	lh	a0,0(a0)
 8000f3a:	20a49603          	lh	a2,522(s1)
 8000f3e:	9596                	add	a1,a1,t0
 8000f40:	00258693          	addi	a3,a1,2
 8000f44:	0025d583          	lhu	a1,2(a1)
 8000f48:	02a60533          	mul	a0,a2,a0
 8000f4c:	41f55613          	srai	a2,a0,0x1f
 8000f50:	8259                	srli	a2,a2,0x16
 8000f52:	9532                	add	a0,a0,a2
 8000f54:	8129                	srli	a0,a0,0xa
 8000f56:	952e                	add	a0,a0,a1
 8000f58:	0419                	addi	s0,s0,6
 8000f5a:	00a69023          	sh	a0,0(a3) # dfc40000 <_stack_start+0xbfc38000>
 8000f5e:	f90416e3          	bne	s0,a6,8000eea <main+0xd0e>
 8000f62:	4401                	li	s0,0
 8000f64:	019404b3          	add	s1,s0,s9
 8000f68:	20e4c603          	lbu	a2,526(s1)
 8000f6c:	62cfede3          	bltu	t6,a2,8001da6 <main+0x1bca>
 8000f70:	008c8533          	add	a0,s9,s0
 8000f74:	20d54503          	lbu	a0,525(a0)
 8000f78:	5ca9e9e3          	bltu	s3,a0,8001d4a <main+0x1b6e>
 8000f7c:	20c4c583          	lbu	a1,524(s1)
 8000f80:	00f5f693          	andi	a3,a1,15
 8000f84:	96c6                	add	a3,a3,a7
 8000f86:	62d0e7e3          	bltu	ra,a3,8001db4 <main+0x1bd8>
 8000f8a:	0045d713          	srli	a4,a1,0x4
 8000f8e:	0709                	addi	a4,a4,2
 8000f90:	09f00793          	li	a5,159
 8000f94:	62b7e7e3          	bltu	a5,a1,8001dc2 <main+0x1be6>
 8000f98:	00761593          	slli	a1,a2,0x7
 8000f9c:	95fa                	add	a1,a1,t5
 8000f9e:	02768633          	mul	a2,a3,t2
 8000fa2:	03d50533          	mul	a0,a0,t4
 8000fa6:	9572                	add	a0,a0,t3
 8000fa8:	9532                	add	a0,a0,a2
 8000faa:	00171613          	slli	a2,a4,0x1
 8000fae:	9532                	add	a0,a0,a2
 8000fb0:	00051503          	lh	a0,0(a0)
 8000fb4:	20a49603          	lh	a2,522(s1)
 8000fb8:	9596                	add	a1,a1,t0
 8000fba:	00458693          	addi	a3,a1,4
 8000fbe:	0045d583          	lhu	a1,4(a1)
 8000fc2:	02a60533          	mul	a0,a2,a0
 8000fc6:	41f55613          	srai	a2,a0,0x1f
 8000fca:	8259                	srli	a2,a2,0x16
 8000fcc:	9532                	add	a0,a0,a2
 8000fce:	8129                	srli	a0,a0,0xa
 8000fd0:	952e                	add	a0,a0,a1
 8000fd2:	0419                	addi	s0,s0,6
 8000fd4:	00a69023          	sh	a0,0(a3)
 8000fd8:	f90416e3          	bne	s0,a6,8000f64 <main+0xd88>
 8000fdc:	4401                	li	s0,0
 8000fde:	019404b3          	add	s1,s0,s9
 8000fe2:	20e4c603          	lbu	a2,526(s1)
 8000fe6:	5ccfe0e3          	bltu	t6,a2,8001da6 <main+0x1bca>
 8000fea:	008c8533          	add	a0,s9,s0
 8000fee:	20d54503          	lbu	a0,525(a0)
 8000ff2:	54a9ece3          	bltu	s3,a0,8001d4a <main+0x1b6e>
 8000ff6:	20c4c583          	lbu	a1,524(s1)
 8000ffa:	00f5f693          	andi	a3,a1,15
 8000ffe:	96c6                	add	a3,a3,a7
 8001000:	5ad0eae3          	bltu	ra,a3,8001db4 <main+0x1bd8>
 8001004:	0045d713          	srli	a4,a1,0x4
 8001008:	070d                	addi	a4,a4,3
 800100a:	08f00793          	li	a5,143
 800100e:	5ab7eae3          	bltu	a5,a1,8001dc2 <main+0x1be6>
 8001012:	00761593          	slli	a1,a2,0x7
 8001016:	95fa                	add	a1,a1,t5
 8001018:	02768633          	mul	a2,a3,t2
 800101c:	03d50533          	mul	a0,a0,t4
 8001020:	9572                	add	a0,a0,t3
 8001022:	9532                	add	a0,a0,a2
 8001024:	00171613          	slli	a2,a4,0x1
 8001028:	9532                	add	a0,a0,a2
 800102a:	00051503          	lh	a0,0(a0)
 800102e:	20a49603          	lh	a2,522(s1)
 8001032:	9596                	add	a1,a1,t0
 8001034:	00658693          	addi	a3,a1,6
 8001038:	0065d583          	lhu	a1,6(a1)
 800103c:	02a60533          	mul	a0,a2,a0
 8001040:	41f55613          	srai	a2,a0,0x1f
 8001044:	8259                	srli	a2,a2,0x16
 8001046:	9532                	add	a0,a0,a2
 8001048:	8129                	srli	a0,a0,0xa
 800104a:	952e                	add	a0,a0,a1
 800104c:	0419                	addi	s0,s0,6
 800104e:	00a69023          	sh	a0,0(a3)
 8001052:	f90416e3          	bne	s0,a6,8000fde <main+0xe02>
 8001056:	4401                	li	s0,0
 8001058:	06f00813          	li	a6,111
 800105c:	019404b3          	add	s1,s0,s9
 8001060:	20e4c603          	lbu	a2,526(s1)
 8001064:	54cfe1e3          	bltu	t6,a2,8001da6 <main+0x1bca>
 8001068:	008c8533          	add	a0,s9,s0
 800106c:	20d54503          	lbu	a0,525(a0)
 8001070:	4ca9ede3          	bltu	s3,a0,8001d4a <main+0x1b6e>
 8001074:	20c4c583          	lbu	a1,524(s1)
 8001078:	00f5f693          	andi	a3,a1,15
 800107c:	96c6                	add	a3,a3,a7
 800107e:	52d0ebe3          	bltu	ra,a3,8001db4 <main+0x1bd8>
 8001082:	01859713          	slli	a4,a1,0x18
 8001086:	41875793          	srai	a5,a4,0x18
 800108a:	8191                	srli	a1,a1,0x4
 800108c:	00458713          	addi	a4,a1,4
 8001090:	5207c9e3          	bltz	a5,8001dc2 <main+0x1be6>
 8001094:	00761593          	slli	a1,a2,0x7
 8001098:	95fa                	add	a1,a1,t5
 800109a:	02768633          	mul	a2,a3,t2
 800109e:	03d50533          	mul	a0,a0,t4
 80010a2:	9572                	add	a0,a0,t3
 80010a4:	9532                	add	a0,a0,a2
 80010a6:	00171613          	slli	a2,a4,0x1
 80010aa:	9532                	add	a0,a0,a2
 80010ac:	00051503          	lh	a0,0(a0)
 80010b0:	20a49603          	lh	a2,522(s1)
 80010b4:	9596                	add	a1,a1,t0
 80010b6:	00858693          	addi	a3,a1,8
 80010ba:	0085d583          	lhu	a1,8(a1)
 80010be:	02a60533          	mul	a0,a2,a0
 80010c2:	41f55613          	srai	a2,a0,0x1f
 80010c6:	8259                	srli	a2,a2,0x16
 80010c8:	9532                	add	a0,a0,a2
 80010ca:	8129                	srli	a0,a0,0xa
 80010cc:	952e                	add	a0,a0,a1
 80010ce:	0419                	addi	s0,s0,6
 80010d0:	00a69023          	sh	a0,0(a3)
 80010d4:	4aa00793          	li	a5,1194
 80010d8:	f8f412e3          	bne	s0,a5,800105c <main+0xe80>
 80010dc:	4401                	li	s0,0
 80010de:	019404b3          	add	s1,s0,s9
 80010e2:	20e4c603          	lbu	a2,526(s1)
 80010e6:	4ccfe0e3          	bltu	t6,a2,8001da6 <main+0x1bca>
 80010ea:	008c8533          	add	a0,s9,s0
 80010ee:	20d54503          	lbu	a0,525(a0)
 80010f2:	44a9ece3          	bltu	s3,a0,8001d4a <main+0x1b6e>
 80010f6:	20c4c583          	lbu	a1,524(s1)
 80010fa:	00f5f693          	andi	a3,a1,15
 80010fe:	96c6                	add	a3,a3,a7
 8001100:	4ad0eae3          	bltu	ra,a3,8001db4 <main+0x1bd8>
 8001104:	0045d713          	srli	a4,a1,0x4
 8001108:	0715                	addi	a4,a4,5
 800110a:	4ab86ce3          	bltu	a6,a1,8001dc2 <main+0x1be6>
 800110e:	00761593          	slli	a1,a2,0x7
 8001112:	95fa                	add	a1,a1,t5
 8001114:	02768633          	mul	a2,a3,t2
 8001118:	03d50533          	mul	a0,a0,t4
 800111c:	9572                	add	a0,a0,t3
 800111e:	9532                	add	a0,a0,a2
 8001120:	00171613          	slli	a2,a4,0x1
 8001124:	9532                	add	a0,a0,a2
 8001126:	00051503          	lh	a0,0(a0)
 800112a:	20a49603          	lh	a2,522(s1)
 800112e:	9596                	add	a1,a1,t0
 8001130:	00a58693          	addi	a3,a1,10
 8001134:	00a5d583          	lhu	a1,10(a1)
 8001138:	02a60533          	mul	a0,a2,a0
 800113c:	41f55613          	srai	a2,a0,0x1f
 8001140:	8259                	srli	a2,a2,0x16
 8001142:	9532                	add	a0,a0,a2
 8001144:	8129                	srli	a0,a0,0xa
 8001146:	952e                	add	a0,a0,a1
 8001148:	0419                	addi	s0,s0,6
 800114a:	00a69023          	sh	a0,0(a3)
 800114e:	f8f418e3          	bne	s0,a5,80010de <main+0xf02>
 8001152:	4401                	li	s0,0
 8001154:	05f00813          	li	a6,95
 8001158:	019404b3          	add	s1,s0,s9
 800115c:	20e4c603          	lbu	a2,526(s1)
 8001160:	44cfe3e3          	bltu	t6,a2,8001da6 <main+0x1bca>
 8001164:	008c8533          	add	a0,s9,s0
 8001168:	20d54503          	lbu	a0,525(a0)
 800116c:	3ca9efe3          	bltu	s3,a0,8001d4a <main+0x1b6e>
 8001170:	20c4c583          	lbu	a1,524(s1)
 8001174:	00f5f693          	andi	a3,a1,15
 8001178:	96c6                	add	a3,a3,a7
 800117a:	42d0ede3          	bltu	ra,a3,8001db4 <main+0x1bd8>
 800117e:	0045d713          	srli	a4,a1,0x4
 8001182:	0719                	addi	a4,a4,6
 8001184:	42b86fe3          	bltu	a6,a1,8001dc2 <main+0x1be6>
 8001188:	00761593          	slli	a1,a2,0x7
 800118c:	95fa                	add	a1,a1,t5
 800118e:	02768633          	mul	a2,a3,t2
 8001192:	03d50533          	mul	a0,a0,t4
 8001196:	9572                	add	a0,a0,t3
 8001198:	9532                	add	a0,a0,a2
 800119a:	00171613          	slli	a2,a4,0x1
 800119e:	9532                	add	a0,a0,a2
 80011a0:	00051503          	lh	a0,0(a0)
 80011a4:	20a49603          	lh	a2,522(s1)
 80011a8:	9596                	add	a1,a1,t0
 80011aa:	00c58693          	addi	a3,a1,12
 80011ae:	00c5d583          	lhu	a1,12(a1)
 80011b2:	02a60533          	mul	a0,a2,a0
 80011b6:	41f55613          	srai	a2,a0,0x1f
 80011ba:	8259                	srli	a2,a2,0x16
 80011bc:	9532                	add	a0,a0,a2
 80011be:	8129                	srli	a0,a0,0xa
 80011c0:	952e                	add	a0,a0,a1
 80011c2:	0419                	addi	s0,s0,6
 80011c4:	00a69023          	sh	a0,0(a3)
 80011c8:	f8f418e3          	bne	s0,a5,8001158 <main+0xf7c>
 80011cc:	4401                	li	s0,0
 80011ce:	04f00813          	li	a6,79
 80011d2:	019404b3          	add	s1,s0,s9
 80011d6:	20e4c603          	lbu	a2,526(s1)
 80011da:	3ccfe6e3          	bltu	t6,a2,8001da6 <main+0x1bca>
 80011de:	008c8533          	add	a0,s9,s0
 80011e2:	20d54503          	lbu	a0,525(a0)
 80011e6:	36a9e2e3          	bltu	s3,a0,8001d4a <main+0x1b6e>
 80011ea:	20c4c583          	lbu	a1,524(s1)
 80011ee:	00f5f693          	andi	a3,a1,15
 80011f2:	96c6                	add	a3,a3,a7
 80011f4:	3cd0e0e3          	bltu	ra,a3,8001db4 <main+0x1bd8>
 80011f8:	0045d713          	srli	a4,a1,0x4
 80011fc:	071d                	addi	a4,a4,7
 80011fe:	3cb862e3          	bltu	a6,a1,8001dc2 <main+0x1be6>
 8001202:	00761593          	slli	a1,a2,0x7
 8001206:	95fa                	add	a1,a1,t5
 8001208:	02768633          	mul	a2,a3,t2
 800120c:	03d50533          	mul	a0,a0,t4
 8001210:	9572                	add	a0,a0,t3
 8001212:	9532                	add	a0,a0,a2
 8001214:	00171613          	slli	a2,a4,0x1
 8001218:	9532                	add	a0,a0,a2
 800121a:	00051503          	lh	a0,0(a0)
 800121e:	20a49603          	lh	a2,522(s1)
 8001222:	9596                	add	a1,a1,t0
 8001224:	00e58693          	addi	a3,a1,14
 8001228:	00e5d583          	lhu	a1,14(a1)
 800122c:	02a60533          	mul	a0,a2,a0
 8001230:	41f55613          	srai	a2,a0,0x1f
 8001234:	8259                	srli	a2,a2,0x16
 8001236:	9532                	add	a0,a0,a2
 8001238:	8129                	srli	a0,a0,0xa
 800123a:	952e                	add	a0,a0,a1
 800123c:	0419                	addi	s0,s0,6
 800123e:	00a69023          	sh	a0,0(a3)
 8001242:	f8f418e3          	bne	s0,a5,80011d2 <main+0xff6>
 8001246:	5582                	lw	a1,32(sp)
 8001248:	88ae                	mv	a7,a1
 800124a:	4521                	li	a0,8
 800124c:	c0a59de3          	bne	a1,a0,8000e66 <main+0xc8a>
 8001250:	6511                	lui	a0,0x4
 8001252:	26450513          	addi	a0,a0,612 # 4264 <_hart_stack_size+0x3a64>
 8001256:	950a                	add	a0,a0,sp
 8001258:	842a                	mv	s0,a0
 800125a:	8522                	mv	a0,s0
 800125c:	85fa                	mv	a1,t5
 800125e:	4672                	lw	a2,28(sp)
 8001260:	00001097          	auipc	ra,0x1
 8001264:	fc4080e7          	jalr	-60(ra) # 8002224 <memcpy>
 8001268:	85a2                	mv	a1,s0
 800126a:	4481                	li	s1,0
 800126c:	4781                	li	a5,0
 800126e:	4501                	li	a0,0
 8001270:	8622                	mv	a2,s0
 8001272:	42b2                	lw	t0,12(sp)
 8001274:	577d                	li	a4,-1
 8001276:	cd09                	beqz	a0,8001290 <main+0x10b4>
 8001278:	86aa                	mv	a3,a0
 800127a:	00a78b63          	beq	a5,a0,8001290 <main+0x10b4>
 800127e:	00069403          	lh	s0,0(a3)
 8001282:	00268513          	addi	a0,a3,2
 8001286:	fe8748e3          	blt	a4,s0,8001276 <main+0x109a>
 800128a:	00069023          	sh	zero,0(a3)
 800128e:	b7e5                	j	8001276 <main+0x109a>
 8001290:	00f03533          	snez	a0,a5
 8001294:	0117c6b3          	xor	a3,a5,a7
 8001298:	00d036b3          	snez	a3,a3
 800129c:	8d75                	and	a0,a0,a3
 800129e:	e505                	bnez	a0,80012c6 <main+0x10ea>
 80012a0:	00903533          	snez	a0,s1
 80012a4:	0104c6b3          	xor	a3,s1,a6
 80012a8:	00d036b3          	snez	a3,a3
 80012ac:	8d75                	and	a0,a0,a3
 80012ae:	ed19                	bnez	a0,80012cc <main+0x10f0>
 80012b0:	02560b63          	beq	a2,t0,80012e6 <main+0x110a>
 80012b4:	84b2                	mv	s1,a2
 80012b6:	40060513          	addi	a0,a2,1024
 80012ba:	40050613          	addi	a2,a0,1024
 80012be:	d8ed                	beqz	s1,80012b0 <main+0x10d4>
 80012c0:	86b2                	mv	a3,a2
 80012c2:	e881                	bnez	s1,80012d2 <main+0x10f6>
 80012c4:	a00d                	j	80012e6 <main+0x110a>
 80012c6:	86b2                	mv	a3,a2
 80012c8:	eb99                	bnez	a5,80012de <main+0x1102>
 80012ca:	a831                	j	80012e6 <main+0x110a>
 80012cc:	86b2                	mv	a3,a2
 80012ce:	8642                	mv	a2,a6
 80012d0:	c899                	beqz	s1,80012e6 <main+0x110a>
 80012d2:	08048893          	addi	a7,s1,128
 80012d6:	87a6                	mv	a5,s1
 80012d8:	84c6                	mv	s1,a7
 80012da:	8832                	mv	a6,a2
 80012dc:	c789                	beqz	a5,80012e6 <main+0x110a>
 80012de:	853e                	mv	a0,a5
 80012e0:	07c1                	addi	a5,a5,16
 80012e2:	8636                	mv	a2,a3
 80012e4:	bf49                	j	8001276 <main+0x109a>
 80012e6:	651d                	lui	a0,0x7
 80012e8:	c2450513          	addi	a0,a0,-988 # 6c24 <_hart_stack_size+0x6424>
 80012ec:	950a                	add	a0,a0,sp
 80012ee:	852a                	mv	a0,a0
 80012f0:	4672                	lw	a2,28(sp)
 80012f2:	842e                	mv	s0,a1
 80012f4:	00001097          	auipc	ra,0x1
 80012f8:	f30080e7          	jalr	-208(ra) # 8002224 <memcpy>
 80012fc:	20000613          	li	a2,512
 8001300:	8522                	mv	a0,s0
 8001302:	4581                	li	a1,0
 8001304:	00001097          	auipc	ra,0x1
 8001308:	f36080e7          	jalr	-202(ra) # 800223a <memset>
 800130c:	4401                	li	s0,0
 800130e:	651d                	lui	a0,0x7
 8001310:	c6450513          	addi	a0,a0,-924 # 6c64 <_hart_stack_size+0x6464>
 8001314:	950a                	add	a0,a0,sp
 8001316:	85aa                	mv	a1,a0
 8001318:	6511                	lui	a0,0x4
 800131a:	27450513          	addi	a0,a0,628 # 4274 <_hart_stack_size+0x3a74>
 800131e:	950a                	add	a0,a0,sp
 8001320:	87aa                	mv	a5,a0
 8001322:	20000493          	li	s1,512
 8001326:	651d                	lui	a0,0x7
 8001328:	42450513          	addi	a0,a0,1060 # 7424 <_hart_stack_size+0x6c24>
 800132c:	950a                	add	a0,a0,sp
 800132e:	852a                	mv	a0,a0
 8001330:	a809                	j	8001342 <main+0x1166>
 8001332:	00e61723          	sh	a4,14(a2)
 8001336:	02040413          	addi	s0,s0,32
 800133a:	08058593          	addi	a1,a1,128
 800133e:	52940263          	beq	s0,s1,8001862 <main+0x1686>
 8001342:	fc059683          	lh	a3,-64(a1)
 8001346:	24d05863          	blez	a3,8001596 <main+0x13ba>
 800134a:	fc259603          	lh	a2,-62(a1)
 800134e:	01069713          	slli	a4,a3,0x10
 8001352:	8741                	srai	a4,a4,0x10
 8001354:	24e65963          	bge	a2,a4,80015a6 <main+0x13ca>
 8001358:	fd059603          	lh	a2,-48(a1)
 800135c:	01069713          	slli	a4,a3,0x10
 8001360:	8741                	srai	a4,a4,0x10
 8001362:	24e65a63          	bge	a2,a4,80015b6 <main+0x13da>
 8001366:	fd259603          	lh	a2,-46(a1)
 800136a:	01069713          	slli	a4,a3,0x10
 800136e:	8741                	srai	a4,a4,0x10
 8001370:	24e65b63          	bge	a2,a4,80015c6 <main+0x13ea>
 8001374:	fc459703          	lh	a4,-60(a1)
 8001378:	00878633          	add	a2,a5,s0
 800137c:	fed61823          	sh	a3,-16(a2)
 8001380:	24e05c63          	blez	a4,80015d8 <main+0x13fc>
 8001384:	fc659683          	lh	a3,-58(a1)
 8001388:	24e6dd63          	bge	a3,a4,80015e2 <main+0x1406>
 800138c:	fd459683          	lh	a3,-44(a1)
 8001390:	24e6de63          	bge	a3,a4,80015ec <main+0x1410>
 8001394:	fd659683          	lh	a3,-42(a1)
 8001398:	24e6df63          	bge	a3,a4,80015f6 <main+0x141a>
 800139c:	fc859683          	lh	a3,-56(a1)
 80013a0:	fee61923          	sh	a4,-14(a2)
 80013a4:	26d05063          	blez	a3,8001604 <main+0x1428>
 80013a8:	fca59703          	lh	a4,-54(a1)
 80013ac:	26d75163          	bge	a4,a3,800160e <main+0x1432>
 80013b0:	fd859703          	lh	a4,-40(a1)
 80013b4:	26d75263          	bge	a4,a3,8001618 <main+0x143c>
 80013b8:	fda59703          	lh	a4,-38(a1)
 80013bc:	26d75363          	bge	a4,a3,8001622 <main+0x1446>
 80013c0:	fcc59703          	lh	a4,-52(a1)
 80013c4:	fed61a23          	sh	a3,-12(a2)
 80013c8:	26e05463          	blez	a4,8001630 <main+0x1454>
 80013cc:	fce59683          	lh	a3,-50(a1)
 80013d0:	26e6d563          	bge	a3,a4,800163a <main+0x145e>
 80013d4:	fdc59683          	lh	a3,-36(a1)
 80013d8:	26e6d663          	bge	a3,a4,8001644 <main+0x1468>
 80013dc:	fde59683          	lh	a3,-34(a1)
 80013e0:	26e6d763          	bge	a3,a4,800164e <main+0x1472>
 80013e4:	fe059683          	lh	a3,-32(a1)
 80013e8:	fee61b23          	sh	a4,-10(a2)
 80013ec:	26d05863          	blez	a3,800165c <main+0x1480>
 80013f0:	fe259703          	lh	a4,-30(a1)
 80013f4:	26d75963          	bge	a4,a3,8001666 <main+0x148a>
 80013f8:	ff059703          	lh	a4,-16(a1)
 80013fc:	26d75a63          	bge	a4,a3,8001670 <main+0x1494>
 8001400:	ff259703          	lh	a4,-14(a1)
 8001404:	26d75b63          	bge	a4,a3,800167a <main+0x149e>
 8001408:	fe459703          	lh	a4,-28(a1)
 800140c:	fed61c23          	sh	a3,-8(a2)
 8001410:	26e05c63          	blez	a4,8001688 <main+0x14ac>
 8001414:	fe659683          	lh	a3,-26(a1)
 8001418:	26e6dd63          	bge	a3,a4,8001692 <main+0x14b6>
 800141c:	ff459683          	lh	a3,-12(a1)
 8001420:	26e6de63          	bge	a3,a4,800169c <main+0x14c0>
 8001424:	ff659683          	lh	a3,-10(a1)
 8001428:	26e6df63          	bge	a3,a4,80016a6 <main+0x14ca>
 800142c:	fe859683          	lh	a3,-24(a1)
 8001430:	fee61d23          	sh	a4,-6(a2)
 8001434:	28d05063          	blez	a3,80016b4 <main+0x14d8>
 8001438:	fea59703          	lh	a4,-22(a1)
 800143c:	28d75163          	bge	a4,a3,80016be <main+0x14e2>
 8001440:	ff859703          	lh	a4,-8(a1)
 8001444:	28d75263          	bge	a4,a3,80016c8 <main+0x14ec>
 8001448:	ffa59703          	lh	a4,-6(a1)
 800144c:	28d75363          	bge	a4,a3,80016d2 <main+0x14f6>
 8001450:	fec59703          	lh	a4,-20(a1)
 8001454:	fed61e23          	sh	a3,-4(a2)
 8001458:	28e05463          	blez	a4,80016e0 <main+0x1504>
 800145c:	fee59683          	lh	a3,-18(a1)
 8001460:	28e6d563          	bge	a3,a4,80016ea <main+0x150e>
 8001464:	ffc59683          	lh	a3,-4(a1)
 8001468:	28e6d663          	bge	a3,a4,80016f4 <main+0x1518>
 800146c:	ffe59683          	lh	a3,-2(a1)
 8001470:	28e6d763          	bge	a3,a4,80016fe <main+0x1522>
 8001474:	00059683          	lh	a3,0(a1)
 8001478:	fee61f23          	sh	a4,-2(a2)
 800147c:	28d05863          	blez	a3,800170c <main+0x1530>
 8001480:	00259703          	lh	a4,2(a1)
 8001484:	28d75963          	bge	a4,a3,8001716 <main+0x153a>
 8001488:	01059703          	lh	a4,16(a1)
 800148c:	28d75a63          	bge	a4,a3,8001720 <main+0x1544>
 8001490:	01259703          	lh	a4,18(a1)
 8001494:	28d75b63          	bge	a4,a3,800172a <main+0x154e>
 8001498:	00459703          	lh	a4,4(a1)
 800149c:	00d61023          	sh	a3,0(a2)
 80014a0:	28e05c63          	blez	a4,8001738 <main+0x155c>
 80014a4:	00659683          	lh	a3,6(a1)
 80014a8:	28e6dd63          	bge	a3,a4,8001742 <main+0x1566>
 80014ac:	01459683          	lh	a3,20(a1)
 80014b0:	28e6de63          	bge	a3,a4,800174c <main+0x1570>
 80014b4:	01659683          	lh	a3,22(a1)
 80014b8:	28e6df63          	bge	a3,a4,8001756 <main+0x157a>
 80014bc:	00859683          	lh	a3,8(a1)
 80014c0:	00e61123          	sh	a4,2(a2)
 80014c4:	2ad05063          	blez	a3,8001764 <main+0x1588>
 80014c8:	00a59703          	lh	a4,10(a1)
 80014cc:	2ad75163          	bge	a4,a3,800176e <main+0x1592>
 80014d0:	01859703          	lh	a4,24(a1)
 80014d4:	2ad75263          	bge	a4,a3,8001778 <main+0x159c>
 80014d8:	01a59703          	lh	a4,26(a1)
 80014dc:	2ad75363          	bge	a4,a3,8001782 <main+0x15a6>
 80014e0:	00c59703          	lh	a4,12(a1)
 80014e4:	00d61223          	sh	a3,4(a2)
 80014e8:	2ae05463          	blez	a4,8001790 <main+0x15b4>
 80014ec:	00e59683          	lh	a3,14(a1)
 80014f0:	2ae6d563          	bge	a3,a4,800179a <main+0x15be>
 80014f4:	01c59683          	lh	a3,28(a1)
 80014f8:	2ae6d663          	bge	a3,a4,80017a4 <main+0x15c8>
 80014fc:	01e59683          	lh	a3,30(a1)
 8001500:	2ae6d763          	bge	a3,a4,80017ae <main+0x15d2>
 8001504:	02059683          	lh	a3,32(a1)
 8001508:	00e61323          	sh	a4,6(a2)
 800150c:	2ad05863          	blez	a3,80017bc <main+0x15e0>
 8001510:	02259703          	lh	a4,34(a1)
 8001514:	2ad75963          	bge	a4,a3,80017c6 <main+0x15ea>
 8001518:	03059703          	lh	a4,48(a1)
 800151c:	2ad75a63          	bge	a4,a3,80017d0 <main+0x15f4>
 8001520:	03259703          	lh	a4,50(a1)
 8001524:	2ad75b63          	bge	a4,a3,80017da <main+0x15fe>
 8001528:	02459703          	lh	a4,36(a1)
 800152c:	00d61423          	sh	a3,8(a2)
 8001530:	2ae05c63          	blez	a4,80017e8 <main+0x160c>
 8001534:	02659683          	lh	a3,38(a1)
 8001538:	2ae6dd63          	bge	a3,a4,80017f2 <main+0x1616>
 800153c:	03459683          	lh	a3,52(a1)
 8001540:	2ae6de63          	bge	a3,a4,80017fc <main+0x1620>
 8001544:	03659683          	lh	a3,54(a1)
 8001548:	2ae6df63          	bge	a3,a4,8001806 <main+0x162a>
 800154c:	02859683          	lh	a3,40(a1)
 8001550:	00e61523          	sh	a4,10(a2)
 8001554:	2cd05063          	blez	a3,8001814 <main+0x1638>
 8001558:	02a59703          	lh	a4,42(a1)
 800155c:	2cd75163          	bge	a4,a3,800181e <main+0x1642>
 8001560:	03859703          	lh	a4,56(a1)
 8001564:	2cd75263          	bge	a4,a3,8001828 <main+0x164c>
 8001568:	03a59703          	lh	a4,58(a1)
 800156c:	2cd75363          	bge	a4,a3,8001832 <main+0x1656>
 8001570:	02c59703          	lh	a4,44(a1)
 8001574:	00d61623          	sh	a3,12(a2)
 8001578:	2ce05463          	blez	a4,8001840 <main+0x1664>
 800157c:	02e59683          	lh	a3,46(a1)
 8001580:	2ce6d563          	bge	a3,a4,800184a <main+0x166e>
 8001584:	03c59683          	lh	a3,60(a1)
 8001588:	2ce6d663          	bge	a3,a4,8001854 <main+0x1678>
 800158c:	03e59683          	lh	a3,62(a1)
 8001590:	dae6c1e3          	blt	a3,a4,8001332 <main+0x1156>
 8001594:	a4e9                	j	800185e <main+0x1682>
 8001596:	4681                	li	a3,0
 8001598:	fc259603          	lh	a2,-62(a1)
 800159c:	01069713          	slli	a4,a3,0x10
 80015a0:	8741                	srai	a4,a4,0x10
 80015a2:	dae64be3          	blt	a2,a4,8001358 <main+0x117c>
 80015a6:	86b2                	mv	a3,a2
 80015a8:	fd059603          	lh	a2,-48(a1)
 80015ac:	01069713          	slli	a4,a3,0x10
 80015b0:	8741                	srai	a4,a4,0x10
 80015b2:	dae64ae3          	blt	a2,a4,8001366 <main+0x118a>
 80015b6:	86b2                	mv	a3,a2
 80015b8:	fd259603          	lh	a2,-46(a1)
 80015bc:	01069713          	slli	a4,a3,0x10
 80015c0:	8741                	srai	a4,a4,0x10
 80015c2:	dae649e3          	blt	a2,a4,8001374 <main+0x1198>
 80015c6:	86b2                	mv	a3,a2
 80015c8:	fc459703          	lh	a4,-60(a1)
 80015cc:	00878633          	add	a2,a5,s0
 80015d0:	fed61823          	sh	a3,-16(a2)
 80015d4:	dae048e3          	bgtz	a4,8001384 <main+0x11a8>
 80015d8:	4701                	li	a4,0
 80015da:	fc659683          	lh	a3,-58(a1)
 80015de:	dae6c7e3          	blt	a3,a4,800138c <main+0x11b0>
 80015e2:	8736                	mv	a4,a3
 80015e4:	fd459683          	lh	a3,-44(a1)
 80015e8:	dae6c6e3          	blt	a3,a4,8001394 <main+0x11b8>
 80015ec:	8736                	mv	a4,a3
 80015ee:	fd659683          	lh	a3,-42(a1)
 80015f2:	dae6c5e3          	blt	a3,a4,800139c <main+0x11c0>
 80015f6:	8736                	mv	a4,a3
 80015f8:	fc859683          	lh	a3,-56(a1)
 80015fc:	fee61923          	sh	a4,-14(a2)
 8001600:	dad044e3          	bgtz	a3,80013a8 <main+0x11cc>
 8001604:	4681                	li	a3,0
 8001606:	fca59703          	lh	a4,-54(a1)
 800160a:	dad743e3          	blt	a4,a3,80013b0 <main+0x11d4>
 800160e:	86ba                	mv	a3,a4
 8001610:	fd859703          	lh	a4,-40(a1)
 8001614:	dad742e3          	blt	a4,a3,80013b8 <main+0x11dc>
 8001618:	86ba                	mv	a3,a4
 800161a:	fda59703          	lh	a4,-38(a1)
 800161e:	dad741e3          	blt	a4,a3,80013c0 <main+0x11e4>
 8001622:	86ba                	mv	a3,a4
 8001624:	fcc59703          	lh	a4,-52(a1)
 8001628:	fed61a23          	sh	a3,-12(a2)
 800162c:	dae040e3          	bgtz	a4,80013cc <main+0x11f0>
 8001630:	4701                	li	a4,0
 8001632:	fce59683          	lh	a3,-50(a1)
 8001636:	d8e6cfe3          	blt	a3,a4,80013d4 <main+0x11f8>
 800163a:	8736                	mv	a4,a3
 800163c:	fdc59683          	lh	a3,-36(a1)
 8001640:	d8e6cee3          	blt	a3,a4,80013dc <main+0x1200>
 8001644:	8736                	mv	a4,a3
 8001646:	fde59683          	lh	a3,-34(a1)
 800164a:	d8e6cde3          	blt	a3,a4,80013e4 <main+0x1208>
 800164e:	8736                	mv	a4,a3
 8001650:	fe059683          	lh	a3,-32(a1)
 8001654:	fee61b23          	sh	a4,-10(a2)
 8001658:	d8d04ce3          	bgtz	a3,80013f0 <main+0x1214>
 800165c:	4681                	li	a3,0
 800165e:	fe259703          	lh	a4,-30(a1)
 8001662:	d8d74be3          	blt	a4,a3,80013f8 <main+0x121c>
 8001666:	86ba                	mv	a3,a4
 8001668:	ff059703          	lh	a4,-16(a1)
 800166c:	d8d74ae3          	blt	a4,a3,8001400 <main+0x1224>
 8001670:	86ba                	mv	a3,a4
 8001672:	ff259703          	lh	a4,-14(a1)
 8001676:	d8d749e3          	blt	a4,a3,8001408 <main+0x122c>
 800167a:	86ba                	mv	a3,a4
 800167c:	fe459703          	lh	a4,-28(a1)
 8001680:	fed61c23          	sh	a3,-8(a2)
 8001684:	d8e048e3          	bgtz	a4,8001414 <main+0x1238>
 8001688:	4701                	li	a4,0
 800168a:	fe659683          	lh	a3,-26(a1)
 800168e:	d8e6c7e3          	blt	a3,a4,800141c <main+0x1240>
 8001692:	8736                	mv	a4,a3
 8001694:	ff459683          	lh	a3,-12(a1)
 8001698:	d8e6c6e3          	blt	a3,a4,8001424 <main+0x1248>
 800169c:	8736                	mv	a4,a3
 800169e:	ff659683          	lh	a3,-10(a1)
 80016a2:	d8e6c5e3          	blt	a3,a4,800142c <main+0x1250>
 80016a6:	8736                	mv	a4,a3
 80016a8:	fe859683          	lh	a3,-24(a1)
 80016ac:	fee61d23          	sh	a4,-6(a2)
 80016b0:	d8d044e3          	bgtz	a3,8001438 <main+0x125c>
 80016b4:	4681                	li	a3,0
 80016b6:	fea59703          	lh	a4,-22(a1)
 80016ba:	d8d743e3          	blt	a4,a3,8001440 <main+0x1264>
 80016be:	86ba                	mv	a3,a4
 80016c0:	ff859703          	lh	a4,-8(a1)
 80016c4:	d8d742e3          	blt	a4,a3,8001448 <main+0x126c>
 80016c8:	86ba                	mv	a3,a4
 80016ca:	ffa59703          	lh	a4,-6(a1)
 80016ce:	d8d741e3          	blt	a4,a3,8001450 <main+0x1274>
 80016d2:	86ba                	mv	a3,a4
 80016d4:	fec59703          	lh	a4,-20(a1)
 80016d8:	fed61e23          	sh	a3,-4(a2)
 80016dc:	d8e040e3          	bgtz	a4,800145c <main+0x1280>
 80016e0:	4701                	li	a4,0
 80016e2:	fee59683          	lh	a3,-18(a1)
 80016e6:	d6e6cfe3          	blt	a3,a4,8001464 <main+0x1288>
 80016ea:	8736                	mv	a4,a3
 80016ec:	ffc59683          	lh	a3,-4(a1)
 80016f0:	d6e6cee3          	blt	a3,a4,800146c <main+0x1290>
 80016f4:	8736                	mv	a4,a3
 80016f6:	ffe59683          	lh	a3,-2(a1)
 80016fa:	d6e6cde3          	blt	a3,a4,8001474 <main+0x1298>
 80016fe:	8736                	mv	a4,a3
 8001700:	00059683          	lh	a3,0(a1)
 8001704:	fee61f23          	sh	a4,-2(a2)
 8001708:	d6d04ce3          	bgtz	a3,8001480 <main+0x12a4>
 800170c:	4681                	li	a3,0
 800170e:	00259703          	lh	a4,2(a1)
 8001712:	d6d74be3          	blt	a4,a3,8001488 <main+0x12ac>
 8001716:	86ba                	mv	a3,a4
 8001718:	01059703          	lh	a4,16(a1)
 800171c:	d6d74ae3          	blt	a4,a3,8001490 <main+0x12b4>
 8001720:	86ba                	mv	a3,a4
 8001722:	01259703          	lh	a4,18(a1)
 8001726:	d6d749e3          	blt	a4,a3,8001498 <main+0x12bc>
 800172a:	86ba                	mv	a3,a4
 800172c:	00459703          	lh	a4,4(a1)
 8001730:	00d61023          	sh	a3,0(a2)
 8001734:	d6e048e3          	bgtz	a4,80014a4 <main+0x12c8>
 8001738:	4701                	li	a4,0
 800173a:	00659683          	lh	a3,6(a1)
 800173e:	d6e6c7e3          	blt	a3,a4,80014ac <main+0x12d0>
 8001742:	8736                	mv	a4,a3
 8001744:	01459683          	lh	a3,20(a1)
 8001748:	d6e6c6e3          	blt	a3,a4,80014b4 <main+0x12d8>
 800174c:	8736                	mv	a4,a3
 800174e:	01659683          	lh	a3,22(a1)
 8001752:	d6e6c5e3          	blt	a3,a4,80014bc <main+0x12e0>
 8001756:	8736                	mv	a4,a3
 8001758:	00859683          	lh	a3,8(a1)
 800175c:	00e61123          	sh	a4,2(a2)
 8001760:	d6d044e3          	bgtz	a3,80014c8 <main+0x12ec>
 8001764:	4681                	li	a3,0
 8001766:	00a59703          	lh	a4,10(a1)
 800176a:	d6d743e3          	blt	a4,a3,80014d0 <main+0x12f4>
 800176e:	86ba                	mv	a3,a4
 8001770:	01859703          	lh	a4,24(a1)
 8001774:	d6d742e3          	blt	a4,a3,80014d8 <main+0x12fc>
 8001778:	86ba                	mv	a3,a4
 800177a:	01a59703          	lh	a4,26(a1)
 800177e:	d6d741e3          	blt	a4,a3,80014e0 <main+0x1304>
 8001782:	86ba                	mv	a3,a4
 8001784:	00c59703          	lh	a4,12(a1)
 8001788:	00d61223          	sh	a3,4(a2)
 800178c:	d6e040e3          	bgtz	a4,80014ec <main+0x1310>
 8001790:	4701                	li	a4,0
 8001792:	00e59683          	lh	a3,14(a1)
 8001796:	d4e6cfe3          	blt	a3,a4,80014f4 <main+0x1318>
 800179a:	8736                	mv	a4,a3
 800179c:	01c59683          	lh	a3,28(a1)
 80017a0:	d4e6cee3          	blt	a3,a4,80014fc <main+0x1320>
 80017a4:	8736                	mv	a4,a3
 80017a6:	01e59683          	lh	a3,30(a1)
 80017aa:	d4e6cde3          	blt	a3,a4,8001504 <main+0x1328>
 80017ae:	8736                	mv	a4,a3
 80017b0:	02059683          	lh	a3,32(a1)
 80017b4:	00e61323          	sh	a4,6(a2)
 80017b8:	d4d04ce3          	bgtz	a3,8001510 <main+0x1334>
 80017bc:	4681                	li	a3,0
 80017be:	02259703          	lh	a4,34(a1)
 80017c2:	d4d74be3          	blt	a4,a3,8001518 <main+0x133c>
 80017c6:	86ba                	mv	a3,a4
 80017c8:	03059703          	lh	a4,48(a1)
 80017cc:	d4d74ae3          	blt	a4,a3,8001520 <main+0x1344>
 80017d0:	86ba                	mv	a3,a4
 80017d2:	03259703          	lh	a4,50(a1)
 80017d6:	d4d749e3          	blt	a4,a3,8001528 <main+0x134c>
 80017da:	86ba                	mv	a3,a4
 80017dc:	02459703          	lh	a4,36(a1)
 80017e0:	00d61423          	sh	a3,8(a2)
 80017e4:	d4e048e3          	bgtz	a4,8001534 <main+0x1358>
 80017e8:	4701                	li	a4,0
 80017ea:	02659683          	lh	a3,38(a1)
 80017ee:	d4e6c7e3          	blt	a3,a4,800153c <main+0x1360>
 80017f2:	8736                	mv	a4,a3
 80017f4:	03459683          	lh	a3,52(a1)
 80017f8:	d4e6c6e3          	blt	a3,a4,8001544 <main+0x1368>
 80017fc:	8736                	mv	a4,a3
 80017fe:	03659683          	lh	a3,54(a1)
 8001802:	d4e6c5e3          	blt	a3,a4,800154c <main+0x1370>
 8001806:	8736                	mv	a4,a3
 8001808:	02859683          	lh	a3,40(a1)
 800180c:	00e61523          	sh	a4,10(a2)
 8001810:	d4d044e3          	bgtz	a3,8001558 <main+0x137c>
 8001814:	4681                	li	a3,0
 8001816:	02a59703          	lh	a4,42(a1)
 800181a:	d4d743e3          	blt	a4,a3,8001560 <main+0x1384>
 800181e:	86ba                	mv	a3,a4
 8001820:	03859703          	lh	a4,56(a1)
 8001824:	d4d742e3          	blt	a4,a3,8001568 <main+0x138c>
 8001828:	86ba                	mv	a3,a4
 800182a:	03a59703          	lh	a4,58(a1)
 800182e:	d4d741e3          	blt	a4,a3,8001570 <main+0x1394>
 8001832:	86ba                	mv	a3,a4
 8001834:	02c59703          	lh	a4,44(a1)
 8001838:	00d61623          	sh	a3,12(a2)
 800183c:	d4e040e3          	bgtz	a4,800157c <main+0x13a0>
 8001840:	4701                	li	a4,0
 8001842:	02e59683          	lh	a3,46(a1)
 8001846:	d2e6cfe3          	blt	a3,a4,8001584 <main+0x13a8>
 800184a:	8736                	mv	a4,a3
 800184c:	03c59683          	lh	a3,60(a1)
 8001850:	d2e6cee3          	blt	a3,a4,800158c <main+0x13b0>
 8001854:	8736                	mv	a4,a3
 8001856:	03e59683          	lh	a3,62(a1)
 800185a:	ace6cce3          	blt	a3,a4,8001332 <main+0x1156>
 800185e:	8736                	mv	a4,a3
 8001860:	bcc9                	j	8001332 <main+0x1156>
 8001862:	0f000613          	li	a2,240
 8001866:	4581                	li	a1,0
 8001868:	00001097          	auipc	ra,0x1
 800186c:	9d2080e7          	jalr	-1582(ra) # 800223a <memset>
 8001870:	651d                	lui	a0,0x7
 8001872:	42450513          	addi	a0,a0,1060 # 7424 <_hart_stack_size+0x6c24>
 8001876:	950a                	add	a0,a0,sp
 8001878:	85aa                	mv	a1,a0
 800187a:	4701                	li	a4,0
 800187c:	6511                	lui	a0,0x4
 800187e:	26450513          	addi	a0,a0,612 # 4264 <_hart_stack_size+0x3a64>
 8001882:	950a                	add	a0,a0,sp
 8001884:	88aa                	mv	a7,a0
 8001886:	483d                	li	a6,15
 8001888:	07700293          	li	t0,119
 800188c:	430d                	li	t1,3
 800188e:	03f00393          	li	t2,63
 8001892:	5c400e13          	li	t3,1476
 8001896:	019707b3          	add	a5,a4,s9
 800189a:	6b87c503          	lbu	a0,1720(a5)
 800189e:	52a2e963          	bltu	t0,a0,8001dd0 <main+0x1bf4>
 80018a2:	00ec8633          	add	a2,s9,a4
 80018a6:	6b764603          	lbu	a2,1719(a2)
 80018aa:	4ec86e63          	bltu	a6,a2,8001da6 <main+0x1bca>
 80018ae:	6b67c483          	lbu	s1,1718(a5)
 80018b2:	00f4f693          	andi	a3,s1,15
 80018b6:	52d36463          	bltu	t1,a3,8001dde <main+0x1c02>
 80018ba:	0044d413          	srli	s0,s1,0x4
 80018be:	5293e763          	bltu	t2,s1,8001dec <main+0x1c10>
 80018c2:	0616                	slli	a2,a2,0x5
 80018c4:	9646                	add	a2,a2,a7
 80018c6:	068e                	slli	a3,a3,0x3
 80018c8:	9636                	add	a2,a2,a3
 80018ca:	00141693          	slli	a3,s0,0x1
 80018ce:	9636                	add	a2,a2,a3
 80018d0:	00061603          	lh	a2,0(a2)
 80018d4:	6b479683          	lh	a3,1716(a5)
 80018d8:	0506                	slli	a0,a0,0x1
 80018da:	952e                	add	a0,a0,a1
 80018dc:	00055783          	lhu	a5,0(a0)
 80018e0:	02c68633          	mul	a2,a3,a2
 80018e4:	41f65693          	srai	a3,a2,0x1f
 80018e8:	82d9                	srli	a3,a3,0x16
 80018ea:	9636                	add	a2,a2,a3
 80018ec:	8229                	srli	a2,a2,0xa
 80018ee:	963e                	add	a2,a2,a5
 80018f0:	0719                	addi	a4,a4,6
 80018f2:	00c51023          	sh	a2,0(a0)
 80018f6:	fbc710e3          	bne	a4,t3,8001896 <main+0x16ba>
 80018fa:	0f000613          	li	a2,240
 80018fe:	651d                	lui	a0,0x7
 8001900:	60450513          	addi	a0,a0,1540 # 7604 <_hart_stack_size+0x6e04>
 8001904:	950a                	add	a0,a0,sp
 8001906:	842a                	mv	s0,a0
 8001908:	8522                	mv	a0,s0
 800190a:	00001097          	auipc	ra,0x1
 800190e:	91a080e7          	jalr	-1766(ra) # 8002224 <memcpy>
 8001912:	85a2                	mv	a1,s0
 8001914:	4481                	li	s1,0
 8001916:	4501                	li	a0,0
 8001918:	4681                	li	a3,0
 800191a:	8722                	mv	a4,s0
 800191c:	661d                	lui	a2,0x7
 800191e:	6f460613          	addi	a2,a2,1780 # 76f4 <_hart_stack_size+0x6ef4>
 8001922:	960a                	add	a2,a2,sp
 8001924:	82b2                	mv	t0,a2
 8001926:	567d                	li	a2,-1
 8001928:	ce89                	beqz	a3,8001942 <main+0x1766>
 800192a:	87b6                	mv	a5,a3
 800192c:	00d50b63          	beq	a0,a3,8001942 <main+0x1766>
 8001930:	00079403          	lh	s0,0(a5)
 8001934:	00278693          	addi	a3,a5,2
 8001938:	fe8648e3          	blt	a2,s0,8001928 <main+0x174c>
 800193c:	00079023          	sh	zero,0(a5)
 8001940:	b7e5                	j	8001928 <main+0x174c>
 8001942:	00a036b3          	snez	a3,a0
 8001946:	011547b3          	xor	a5,a0,a7
 800194a:	00f037b3          	snez	a5,a5
 800194e:	8efd                	and	a3,a3,a5
 8001950:	e695                	bnez	a3,800197c <main+0x17a0>
 8001952:	00903533          	snez	a0,s1
 8001956:	0104c6b3          	xor	a3,s1,a6
 800195a:	00d036b3          	snez	a3,a3
 800195e:	8d75                	and	a0,a0,a3
 8001960:	e909                	bnez	a0,8001972 <main+0x1796>
 8001962:	02570163          	beq	a4,t0,8001984 <main+0x17a8>
 8001966:	84ba                	mv	s1,a4
 8001968:	0f070713          	addi	a4,a4,240
 800196c:	d8fd                	beqz	s1,8001962 <main+0x1786>
 800196e:	0f048813          	addi	a6,s1,240
 8001972:	c889                	beqz	s1,8001984 <main+0x17a8>
 8001974:	00248893          	addi	a7,s1,2
 8001978:	8526                	mv	a0,s1
 800197a:	84c6                	mv	s1,a7
 800197c:	c501                	beqz	a0,8001984 <main+0x17a8>
 800197e:	86aa                	mv	a3,a0
 8001980:	0509                	addi	a0,a0,2
 8001982:	b75d                	j	8001928 <main+0x174c>
 8001984:	0f000613          	li	a2,240
 8001988:	651d                	lui	a0,0x7
 800198a:	51450513          	addi	a0,a0,1300 # 7514 <_hart_stack_size+0x6d14>
 800198e:	950a                	add	a0,a0,sp
 8001990:	842a                	mv	s0,a0
 8001992:	8522                	mv	a0,s0
 8001994:	00001097          	auipc	ra,0x1
 8001998:	890080e7          	jalr	-1904(ra) # 8002224 <memcpy>
 800199c:	0f000613          	li	a2,240
 80019a0:	651d                	lui	a0,0x7
 80019a2:	60450513          	addi	a0,a0,1540 # 7604 <_hart_stack_size+0x6e04>
 80019a6:	950a                	add	a0,a0,sp
 80019a8:	852a                	mv	a0,a0
 80019aa:	85a2                	mv	a1,s0
 80019ac:	00001097          	auipc	ra,0x1
 80019b0:	878080e7          	jalr	-1928(ra) # 8002224 <memcpy>
 80019b4:	0a800613          	li	a2,168
 80019b8:	651d                	lui	a0,0x7
 80019ba:	6f450513          	addi	a0,a0,1780 # 76f4 <_hart_stack_size+0x6ef4>
 80019be:	950a                	add	a0,a0,sp
 80019c0:	842a                	mv	s0,a0
 80019c2:	8522                	mv	a0,s0
 80019c4:	4581                	li	a1,0
 80019c6:	00001097          	auipc	ra,0x1
 80019ca:	874080e7          	jalr	-1932(ra) # 800223a <memset>
 80019ce:	85a2                	mv	a1,s0
 80019d0:	651d                	lui	a0,0x7
 80019d2:	60450513          	addi	a0,a0,1540 # 7604 <_hart_stack_size+0x6e04>
 80019d6:	950a                	add	a0,a0,sp
 80019d8:	882a                	mv	a6,a0
 80019da:	2ac00413          	li	s0,684
 80019de:	63ec8513          	addi	a0,s9,1598
 80019e2:	63d50693          	addi	a3,a0,1597
 80019e6:	07700893          	li	a7,119
 80019ea:	05300493          	li	s1,83
 80019ee:	0006c503          	lbu	a0,0(a3)
 80019f2:	40a4e463          	bltu	s1,a0,8001dfa <main+0x1c1e>
 80019f6:	fff6c603          	lbu	a2,-1(a3)
 80019fa:	40c8e763          	bltu	a7,a2,8001e08 <main+0x1c2c>
 80019fe:	0606                	slli	a2,a2,0x1
 8001a00:	9642                	add	a2,a2,a6
 8001a02:	00061603          	lh	a2,0(a2)
 8001a06:	ffd69703          	lh	a4,-3(a3)
 8001a0a:	0506                	slli	a0,a0,0x1
 8001a0c:	952e                	add	a0,a0,a1
 8001a0e:	00051783          	lh	a5,0(a0)
 8001a12:	02c70633          	mul	a2,a4,a2
 8001a16:	41f65713          	srai	a4,a2,0x1f
 8001a1a:	8359                	srli	a4,a4,0x16
 8001a1c:	963a                	add	a2,a2,a4
 8001a1e:	8229                	srli	a2,a2,0xa
 8001a20:	963e                	add	a2,a2,a5
 8001a22:	00c51023          	sh	a2,0(a0)
 8001a26:	1471                	addi	s0,s0,-4
 8001a28:	0691                	addi	a3,a3,4
 8001a2a:	f071                	bnez	s0,80019ee <main+0x1812>
 8001a2c:	0a800613          	li	a2,168
 8001a30:	6521                	lui	a0,0x8
 8001a32:	84450513          	addi	a0,a0,-1980 # 7844 <_hart_stack_size+0x7044>
 8001a36:	950a                	add	a0,a0,sp
 8001a38:	842a                	mv	s0,a0
 8001a3a:	8522                	mv	a0,s0
 8001a3c:	00000097          	auipc	ra,0x0
 8001a40:	7e8080e7          	jalr	2024(ra) # 8002224 <memcpy>
 8001a44:	4501                	li	a0,0
 8001a46:	0a800693          	li	a3,168
 8001a4a:	659d                	lui	a1,0x7
 8001a4c:	79c58593          	addi	a1,a1,1948 # 779c <_hart_stack_size+0x6f9c>
 8001a50:	958a                	add	a1,a1,sp
 8001a52:	84ae                	mv	s1,a1
 8001a54:	577d                	li	a4,-1
 8001a56:	a011                	j	8001a5a <main+0x187e>
 8001a58:	0509                	addi	a0,a0,2
 8001a5a:	00d50b63          	beq	a0,a3,8001a70 <main+0x1894>
 8001a5e:	00a405b3          	add	a1,s0,a0
 8001a62:	00059603          	lh	a2,0(a1)
 8001a66:	fec749e3          	blt	a4,a2,8001a58 <main+0x187c>
 8001a6a:	00059023          	sh	zero,0(a1)
 8001a6e:	b7ed                	j	8001a58 <main+0x187c>
 8001a70:	0a800613          	li	a2,168
 8001a74:	8526                	mv	a0,s1
 8001a76:	85a2                	mv	a1,s0
 8001a78:	00000097          	auipc	ra,0x0
 8001a7c:	7ac080e7          	jalr	1964(ra) # 8002224 <memcpy>
 8001a80:	6521                	lui	a0,0x8
 8001a82:	85450513          	addi	a0,a0,-1964 # 7854 <_hart_stack_size+0x7054>
 8001a86:	950a                	add	a0,a0,sp
 8001a88:	00052023          	sw	zero,0(a0)
 8001a8c:	6521                	lui	a0,0x8
 8001a8e:	85050513          	addi	a0,a0,-1968 # 7850 <_hart_stack_size+0x7050>
 8001a92:	950a                	add	a0,a0,sp
 8001a94:	00052023          	sw	zero,0(a0)
 8001a98:	6521                	lui	a0,0x8
 8001a9a:	84c50513          	addi	a0,a0,-1972 # 784c <_hart_stack_size+0x704c>
 8001a9e:	950a                	add	a0,a0,sp
 8001aa0:	00052023          	sw	zero,0(a0)
 8001aa4:	6521                	lui	a0,0x8
 8001aa6:	84850513          	addi	a0,a0,-1976 # 7848 <_hart_stack_size+0x7048>
 8001aaa:	950a                	add	a0,a0,sp
 8001aac:	00052023          	sw	zero,0(a0)
 8001ab0:	6521                	lui	a0,0x8
 8001ab2:	84450513          	addi	a0,a0,-1980 # 7844 <_hart_stack_size+0x7044>
 8001ab6:	950a                	add	a0,a0,sp
 8001ab8:	00052023          	sw	zero,0(a0)
 8001abc:	17400513          	li	a0,372
 8001ac0:	794c8593          	addi	a1,s9,1940
 8001ac4:	79358593          	addi	a1,a1,1939
 8001ac8:	fff5c603          	lbu	a2,-1(a1)
 8001acc:	0005c683          	lbu	a3,0(a1)
 8001ad0:	0606                	slli	a2,a2,0x1
 8001ad2:	9626                	add	a2,a2,s1
 8001ad4:	00061603          	lh	a2,0(a2)
 8001ad8:	ffd59703          	lh	a4,-3(a1)
 8001adc:	0686                	slli	a3,a3,0x1
 8001ade:	96a2                	add	a3,a3,s0
 8001ae0:	00069783          	lh	a5,0(a3)
 8001ae4:	02c70633          	mul	a2,a4,a2
 8001ae8:	41f65713          	srai	a4,a2,0x1f
 8001aec:	8359                	srli	a4,a4,0x16
 8001aee:	963a                	add	a2,a2,a4
 8001af0:	8229                	srli	a2,a2,0xa
 8001af2:	963e                	add	a2,a2,a5
 8001af4:	00c69023          	sh	a2,0(a3)
 8001af8:	1571                	addi	a0,a0,-4
 8001afa:	0591                	addi	a1,a1,4
 8001afc:	f571                	bnez	a0,8001ac8 <main+0x18ec>
 8001afe:	6521                	lui	a0,0x8
 8001b00:	84450513          	addi	a0,a0,-1980 # 7844 <_hart_stack_size+0x7044>
 8001b04:	950a                	add	a0,a0,sp
 8001b06:	00051283          	lh	t0,0(a0)
 8001b0a:	6521                	lui	a0,0x8
 8001b0c:	84650513          	addi	a0,a0,-1978 # 7846 <_hart_stack_size+0x7046>
 8001b10:	950a                	add	a0,a0,sp
 8001b12:	00051e83          	lh	t4,0(a0)
 8001b16:	6521                	lui	a0,0x8
 8001b18:	84850513          	addi	a0,a0,-1976 # 7848 <_hart_stack_size+0x7048>
 8001b1c:	950a                	add	a0,a0,sp
 8001b1e:	00051603          	lh	a2,0(a0)
 8001b22:	6521                	lui	a0,0x8
 8001b24:	84a50513          	addi	a0,a0,-1974 # 784a <_hart_stack_size+0x704a>
 8001b28:	950a                	add	a0,a0,sp
 8001b2a:	00051503          	lh	a0,0(a0)
 8001b2e:	65a1                	lui	a1,0x8
 8001b30:	84c58593          	addi	a1,a1,-1972 # 784c <_hart_stack_size+0x704c>
 8001b34:	958a                	add	a1,a1,sp
 8001b36:	00059083          	lh	ra,0(a1)
 8001b3a:	65a1                	lui	a1,0x8
 8001b3c:	84e58593          	addi	a1,a1,-1970 # 784e <_hart_stack_size+0x704e>
 8001b40:	958a                	add	a1,a1,sp
 8001b42:	00059e03          	lh	t3,0(a1)
 8001b46:	65a1                	lui	a1,0x8
 8001b48:	85058593          	addi	a1,a1,-1968 # 7850 <_hart_stack_size+0x7050>
 8001b4c:	958a                	add	a1,a1,sp
 8001b4e:	00059383          	lh	t2,0(a1)
 8001b52:	65a1                	lui	a1,0x8
 8001b54:	85258593          	addi	a1,a1,-1966 # 7852 <_hart_stack_size+0x7052>
 8001b58:	958a                	add	a1,a1,sp
 8001b5a:	00059303          	lh	t1,0(a1)
 8001b5e:	65a1                	lui	a1,0x8
 8001b60:	85458593          	addi	a1,a1,-1964 # 7854 <_hart_stack_size+0x7054>
 8001b64:	958a                	add	a1,a1,sp
 8001b66:	00059883          	lh	a7,0(a1)
 8001b6a:	65a1                	lui	a1,0x8
 8001b6c:	85658593          	addi	a1,a1,-1962 # 7856 <_hart_stack_size+0x7056>
 8001b70:	958a                	add	a1,a1,sp
 8001b72:	00059583          	lh	a1,0(a1)
 8001b76:	d02e                	sw	a1,32(sp)
 8001b78:	85f6                	mv	a1,t4
 8001b7a:	0fd2d063          	bge	t0,t4,8001c5a <main+0x1a7e>
 8001b7e:	01059693          	slli	a3,a1,0x10
 8001b82:	4106df13          	srai	t5,a3,0x10
 8001b86:	86b2                	mv	a3,a2
 8001b88:	0ecf5163          	bge	t5,a2,8001c6a <main+0x1a8e>
 8001b8c:	01069593          	slli	a1,a3,0x10
 8001b90:	4105df93          	srai	t6,a1,0x10
 8001b94:	872a                	mv	a4,a0
 8001b96:	0eafd263          	bge	t6,a0,8001c7a <main+0x1a9e>
 8001b9a:	01071593          	slli	a1,a4,0x10
 8001b9e:	85c1                	srai	a1,a1,0x10
 8001ba0:	8786                	mv	a5,ra
 8001ba2:	0e15d363          	bge	a1,ra,8001c88 <main+0x1aac>
 8001ba6:	01079693          	slli	a3,a5,0x10
 8001baa:	86c1                	srai	a3,a3,0x10
 8001bac:	84f2                	mv	s1,t3
 8001bae:	0fc6d463          	bge	a3,t3,8001c96 <main+0x1aba>
 8001bb2:	01049713          	slli	a4,s1,0x10
 8001bb6:	8741                	srai	a4,a4,0x10
 8001bb8:	841e                	mv	s0,t2
 8001bba:	0e775563          	bge	a4,t2,8001ca4 <main+0x1ac8>
 8001bbe:	01041793          	slli	a5,s0,0x10
 8001bc2:	87c1                	srai	a5,a5,0x10
 8001bc4:	849a                	mv	s1,t1
 8001bc6:	0e67d663          	bge	a5,t1,8001cb2 <main+0x1ad6>
 8001bca:	01049413          	slli	s0,s1,0x10
 8001bce:	41045813          	srai	a6,s0,0x10
 8001bd2:	8446                	mv	s0,a7
 8001bd4:	0f185763          	bge	a6,a7,8001cc2 <main+0x1ae6>
 8001bd8:	4489                	li	s1,2
 8001bda:	0ecf5863          	bge	t5,a2,8001cca <main+0x1aee>
 8001bde:	460d                	li	a2,3
 8001be0:	0eafda63          	bge	t6,a0,8001cd4 <main+0x1af8>
 8001be4:	4511                	li	a0,4
 8001be6:	0e15db63          	bge	a1,ra,8001cdc <main+0x1b00>
 8001bea:	4595                	li	a1,5
 8001bec:	200004b7          	lui	s1,0x20000
 8001bf0:	0fc6dc63          	bge	a3,t3,8001ce8 <main+0x1b0c>
 8001bf4:	4519                	li	a0,6
 8001bf6:	0e775d63          	bge	a4,t2,8001cf0 <main+0x1b14>
 8001bfa:	01041613          	slli	a2,s0,0x10
 8001bfe:	459d                	li	a1,7
 8001c00:	0e67de63          	bge	a5,t1,8001cfc <main+0x1b20>
 8001c04:	41065513          	srai	a0,a2,0x10
 8001c08:	4621                	li	a2,8
 8001c0a:	0f185f63          	bge	a6,a7,8001d08 <main+0x1b2c>
 8001c0e:	4425                	li	s0,9
 8001c10:	5582                	lw	a1,32(sp)
 8001c12:	00b54363          	blt	a0,a1,8001c18 <main+0x1a3c>
 8001c16:	8432                	mv	s0,a2
 8001c18:	00000097          	auipc	ra,0x0
 8001c1c:	5f4080e7          	jalr	1524(ra) # 800220c <__read_mstatus>
 8001c20:	d02a                	sw	a0,32(sp)
 8001c22:	4521                	li	a0,8
 8001c24:	00000097          	auipc	ra,0x0
 8001c28:	5f4080e7          	jalr	1524(ra) # 8002218 <__clear_mstatus>
 8001c2c:	0004c503          	lbu	a0,0(s1) # 20000000 <_edata>
 8001c30:	c909                	beqz	a0,8001c42 <main+0x1a66>
 8001c32:	800da503          	lw	a0,-2048(s11)
 8001c36:	08057513          	andi	a0,a0,128
 8001c3a:	dd65                	beqz	a0,8001c32 <main+0x1a56>
 8001c3c:	4552                	lw	a0,20(sp)
 8001c3e:	00850023          	sb	s0,0(a0)
 8001c42:	5502                	lw	a0,32(sp)
 8001c44:	8921                	andi	a0,a0,8
 8001c46:	e119                	bnez	a0,8001c4c <main+0x1a70>
 8001c48:	b77fe06f          	j	80007be <main+0x5e2>
 8001c4c:	4521                	li	a0,8
 8001c4e:	00000097          	auipc	ra,0x0
 8001c52:	5c4080e7          	jalr	1476(ra) # 8002212 <__set_mstatus>
 8001c56:	b69fe06f          	j	80007be <main+0x5e2>
 8001c5a:	8596                	mv	a1,t0
 8001c5c:	01059693          	slli	a3,a1,0x10
 8001c60:	4106df13          	srai	t5,a3,0x10
 8001c64:	86b2                	mv	a3,a2
 8001c66:	f2cf43e3          	blt	t5,a2,8001b8c <main+0x19b0>
 8001c6a:	86ae                	mv	a3,a1
 8001c6c:	01069593          	slli	a1,a3,0x10
 8001c70:	4105df93          	srai	t6,a1,0x10
 8001c74:	872a                	mv	a4,a0
 8001c76:	f2afc2e3          	blt	t6,a0,8001b9a <main+0x19be>
 8001c7a:	8736                	mv	a4,a3
 8001c7c:	01071593          	slli	a1,a4,0x10
 8001c80:	85c1                	srai	a1,a1,0x10
 8001c82:	8786                	mv	a5,ra
 8001c84:	f215c1e3          	blt	a1,ra,8001ba6 <main+0x19ca>
 8001c88:	87ba                	mv	a5,a4
 8001c8a:	01079693          	slli	a3,a5,0x10
 8001c8e:	86c1                	srai	a3,a3,0x10
 8001c90:	84f2                	mv	s1,t3
 8001c92:	f3c6c0e3          	blt	a3,t3,8001bb2 <main+0x19d6>
 8001c96:	84be                	mv	s1,a5
 8001c98:	01049713          	slli	a4,s1,0x10
 8001c9c:	8741                	srai	a4,a4,0x10
 8001c9e:	841e                	mv	s0,t2
 8001ca0:	f0774fe3          	blt	a4,t2,8001bbe <main+0x19e2>
 8001ca4:	8426                	mv	s0,s1
 8001ca6:	01041793          	slli	a5,s0,0x10
 8001caa:	87c1                	srai	a5,a5,0x10
 8001cac:	849a                	mv	s1,t1
 8001cae:	f067cee3          	blt	a5,t1,8001bca <main+0x19ee>
 8001cb2:	84a2                	mv	s1,s0
 8001cb4:	01049413          	slli	s0,s1,0x10
 8001cb8:	41045813          	srai	a6,s0,0x10
 8001cbc:	8446                	mv	s0,a7
 8001cbe:	f1184de3          	blt	a6,a7,8001bd8 <main+0x19fc>
 8001cc2:	8426                	mv	s0,s1
 8001cc4:	4489                	li	s1,2
 8001cc6:	f0cf4ce3          	blt	t5,a2,8001bde <main+0x1a02>
 8001cca:	01d2a4b3          	slt	s1,t0,t4
 8001cce:	460d                	li	a2,3
 8001cd0:	f0afcae3          	blt	t6,a0,8001be4 <main+0x1a08>
 8001cd4:	8626                	mv	a2,s1
 8001cd6:	4511                	li	a0,4
 8001cd8:	f015c9e3          	blt	a1,ra,8001bea <main+0x1a0e>
 8001cdc:	8532                	mv	a0,a2
 8001cde:	4595                	li	a1,5
 8001ce0:	200004b7          	lui	s1,0x20000
 8001ce4:	f1c6c8e3          	blt	a3,t3,8001bf4 <main+0x1a18>
 8001ce8:	85aa                	mv	a1,a0
 8001cea:	4519                	li	a0,6
 8001cec:	f07747e3          	blt	a4,t2,8001bfa <main+0x1a1e>
 8001cf0:	852e                	mv	a0,a1
 8001cf2:	01041613          	slli	a2,s0,0x10
 8001cf6:	459d                	li	a1,7
 8001cf8:	f067c6e3          	blt	a5,t1,8001c04 <main+0x1a28>
 8001cfc:	85aa                	mv	a1,a0
 8001cfe:	41065513          	srai	a0,a2,0x10
 8001d02:	4621                	li	a2,8
 8001d04:	f11845e3          	blt	a6,a7,8001c0e <main+0x1a32>
 8001d08:	862e                	mv	a2,a1
 8001d0a:	4425                	li	s0,9
 8001d0c:	5582                	lw	a1,32(sp)
 8001d0e:	f0b554e3          	bge	a0,a1,8001c16 <main+0x1a3a>
 8001d12:	b719                	j	8001c18 <main+0x1a3c>
 8001d14:	4485                	li	s1,1
 8001d16:	009500a3          	sb	s1,1(a0)
 8001d1a:	00847513          	andi	a0,s0,8
 8001d1e:	e119                	bnez	a0,8001d24 <main+0x1b48>
 8001d20:	d2cfe06f          	j	800024c <main+0x70>
 8001d24:	4521                	li	a0,8
 8001d26:	00000097          	auipc	ra,0x0
 8001d2a:	4ec080e7          	jalr	1260(ra) # 8002212 <__set_mstatus>
 8001d2e:	c099                	beqz	s1,8001d34 <main+0x1b58>
 8001d30:	d22fe06f          	j	8000252 <main+0x76>
 8001d34:	08002537          	lui	a0,0x8002
 8001d38:	26050513          	addi	a0,a0,608 # 8002260 <.L__unnamed_2>
 8001d3c:	02b00593          	li	a1,43
 8001d40:	00000097          	auipc	ra,0x0
 8001d44:	100080e7          	jalr	256(ra) # 8001e40 <_ZN4core9panicking5panic17h75f4230eb5344784E>
 8001d48:	0000                	unimp
 8001d4a:	4599                	li	a1,6
 8001d4c:	00000097          	auipc	ra,0x0
 8001d50:	102080e7          	jalr	258(ra) # 8001e4e <_ZN4core9panicking18panic_bounds_check17hdb2123637d4e3120E>
 8001d54:	0000                	unimp
 8001d56:	40014537          	lui	a0,0x40014
 8001d5a:	80052583          	lw	a1,-2048(a0) # 40013800 <_stack_start+0x2000b800>
 8001d5e:	80452503          	lw	a0,-2044(a0)
 8001d62:	08002537          	lui	a0,0x8002
 8001d66:	28b50513          	addi	a0,a0,651 # 800228b <.L__unnamed_3>
 8001d6a:	080025b7          	lui	a1,0x8002
 8001d6e:	2b858693          	addi	a3,a1,696 # 80022b8 <.L__unnamed_4>
 8001d72:	6591                	lui	a1,0x4
 8001d74:	26458593          	addi	a1,a1,612 # 4264 <_hart_stack_size+0x3a64>
 8001d78:	958a                	add	a1,a1,sp
 8001d7a:	862e                	mv	a2,a1
 8001d7c:	02b00593          	li	a1,43
 8001d80:	00000097          	auipc	ra,0x0
 8001d84:	0f8080e7          	jalr	248(ra) # 8001e78 <_ZN4core6option18expect_none_failed17h8707ecf19f9d7fafE>
 8001d88:	0000                	unimp
 8001d8a:	45f1                	li	a1,28
 8001d8c:	8532                	mv	a0,a2
 8001d8e:	00000097          	auipc	ra,0x0
 8001d92:	0c0080e7          	jalr	192(ra) # 8001e4e <_ZN4core9panicking18panic_bounds_check17hdb2123637d4e3120E>
 8001d96:	0000                	unimp
 8001d98:	45f1                	li	a1,28
 8001d9a:	8536                	mv	a0,a3
 8001d9c:	00000097          	auipc	ra,0x0
 8001da0:	0b2080e7          	jalr	178(ra) # 8001e4e <_ZN4core9panicking18panic_bounds_check17hdb2123637d4e3120E>
 8001da4:	0000                	unimp
 8001da6:	45c1                	li	a1,16
 8001da8:	8532                	mv	a0,a2
 8001daa:	00000097          	auipc	ra,0x0
 8001dae:	0a4080e7          	jalr	164(ra) # 8001e4e <_ZN4core9panicking18panic_bounds_check17hdb2123637d4e3120E>
 8001db2:	0000                	unimp
 8001db4:	45b1                	li	a1,12
 8001db6:	8536                	mv	a0,a3
 8001db8:	00000097          	auipc	ra,0x0
 8001dbc:	096080e7          	jalr	150(ra) # 8001e4e <_ZN4core9panicking18panic_bounds_check17hdb2123637d4e3120E>
 8001dc0:	0000                	unimp
 8001dc2:	45b1                	li	a1,12
 8001dc4:	853a                	mv	a0,a4
 8001dc6:	00000097          	auipc	ra,0x0
 8001dca:	088080e7          	jalr	136(ra) # 8001e4e <_ZN4core9panicking18panic_bounds_check17hdb2123637d4e3120E>
 8001dce:	0000                	unimp
 8001dd0:	07800593          	li	a1,120
 8001dd4:	00000097          	auipc	ra,0x0
 8001dd8:	07a080e7          	jalr	122(ra) # 8001e4e <_ZN4core9panicking18panic_bounds_check17hdb2123637d4e3120E>
 8001ddc:	0000                	unimp
 8001dde:	4591                	li	a1,4
 8001de0:	8536                	mv	a0,a3
 8001de2:	00000097          	auipc	ra,0x0
 8001de6:	06c080e7          	jalr	108(ra) # 8001e4e <_ZN4core9panicking18panic_bounds_check17hdb2123637d4e3120E>
 8001dea:	0000                	unimp
 8001dec:	4591                	li	a1,4
 8001dee:	8522                	mv	a0,s0
 8001df0:	00000097          	auipc	ra,0x0
 8001df4:	05e080e7          	jalr	94(ra) # 8001e4e <_ZN4core9panicking18panic_bounds_check17hdb2123637d4e3120E>
 8001df8:	0000                	unimp
 8001dfa:	05400593          	li	a1,84
 8001dfe:	00000097          	auipc	ra,0x0
 8001e02:	050080e7          	jalr	80(ra) # 8001e4e <_ZN4core9panicking18panic_bounds_check17hdb2123637d4e3120E>
 8001e06:	0000                	unimp
 8001e08:	07800593          	li	a1,120
 8001e0c:	8532                	mv	a0,a2
 8001e0e:	00000097          	auipc	ra,0x0
 8001e12:	040080e7          	jalr	64(ra) # 8001e4e <_ZN4core9panicking18panic_bounds_check17hdb2123637d4e3120E>
 8001e16:	0000                	unimp
 8001e18:	00000097          	auipc	ra,0x0
 8001e1c:	052080e7          	jalr	82(ra) # 8001e6a <_ZN4core6option13expect_failed17hf40c26b75ed20b1aE>
 8001e20:	0000                	unimp
 8001e22:	08003537          	lui	a0,0x8003
 8001e26:	36050513          	addi	a0,a0,864 # 8003360 <str.0.111>
 8001e2a:	45e5                	li	a1,25
 8001e2c:	00000097          	auipc	ra,0x0
 8001e30:	014080e7          	jalr	20(ra) # 8001e40 <_ZN4core9panicking5panic17h75f4230eb5344784E>
 8001e34:	0000                	unimp
 8001e36:	00000097          	auipc	ra,0x0
 8001e3a:	026080e7          	jalr	38(ra) # 8001e5c <_ZN4core9panicking9panic_fmt17ha64a211bdef969edE>
	...

08001e40 <_ZN4core9panicking5panic17h75f4230eb5344784E>:
 8001e40:	1141                	addi	sp,sp,-16
 8001e42:	c606                	sw	ra,12(sp)
 8001e44:	00000097          	auipc	ra,0x0
 8001e48:	018080e7          	jalr	24(ra) # 8001e5c <_ZN4core9panicking9panic_fmt17ha64a211bdef969edE>
	...

08001e4e <_ZN4core9panicking18panic_bounds_check17hdb2123637d4e3120E>:
 8001e4e:	1141                	addi	sp,sp,-16
 8001e50:	c606                	sw	ra,12(sp)
 8001e52:	00000097          	auipc	ra,0x0
 8001e56:	00a080e7          	jalr	10(ra) # 8001e5c <_ZN4core9panicking9panic_fmt17ha64a211bdef969edE>
	...

08001e5c <_ZN4core9panicking9panic_fmt17ha64a211bdef969edE>:
 8001e5c:	1141                	addi	sp,sp,-16
 8001e5e:	c606                	sw	ra,12(sp)
 8001e60:	00000097          	auipc	ra,0x0
 8001e64:	098080e7          	jalr	152(ra) # 8001ef8 <rust_begin_unwind>
	...

08001e6a <_ZN4core6option13expect_failed17hf40c26b75ed20b1aE>:
 8001e6a:	1141                	addi	sp,sp,-16
 8001e6c:	c606                	sw	ra,12(sp)
 8001e6e:	00000097          	auipc	ra,0x0
 8001e72:	fee080e7          	jalr	-18(ra) # 8001e5c <_ZN4core9panicking9panic_fmt17ha64a211bdef969edE>
	...

08001e78 <_ZN4core6option18expect_none_failed17h8707ecf19f9d7fafE>:
 8001e78:	1141                	addi	sp,sp,-16
 8001e7a:	c606                	sw	ra,12(sp)
 8001e7c:	00000097          	auipc	ra,0x0
 8001e80:	fe0080e7          	jalr	-32(ra) # 8001e5c <_ZN4core9panicking9panic_fmt17ha64a211bdef969edE>
	...

08001e86 <_ZN67_$LT$gd32vf103xx_hal..serial..Error$u20$as$u20$core..fmt..Debug$GT$3fmt17h64788800725db47dE>:
 8001e86:	00054503          	lbu	a0,0(a0)
 8001e8a:	4605                	li	a2,1
 8001e8c:	02a65163          	bge	a2,a0,8001eae <_ZN67_$LT$gd32vf103xx_hal..serial..Error$u20$as$u20$core..fmt..Debug$GT$3fmt17h64788800725db47dE+0x28>
 8001e90:	4609                	li	a2,2
 8001e92:	02c50863          	beq	a0,a2,8001ec2 <_ZN67_$LT$gd32vf103xx_hal..serial..Error$u20$as$u20$core..fmt..Debug$GT$3fmt17h64788800725db47dE+0x3c>
 8001e96:	460d                	li	a2,3
 8001e98:	02c51e63          	bne	a0,a2,8001ed4 <_ZN67_$LT$gd32vf103xx_hal..serial..Error$u20$as$u20$core..fmt..Debug$GT$3fmt17h64788800725db47dE+0x4e>
 8001e9c:	4dd0                	lw	a2,28(a1)
 8001e9e:	4d88                	lw	a0,24(a1)
 8001ea0:	465c                	lw	a5,12(a2)
 8001ea2:	080035b7          	lui	a1,0x8003
 8001ea6:	39758593          	addi	a1,a1,919 # 8003397 <.Lanon.a3253abe55c45a025617bb90117944e7.90>
 8001eaa:	4619                	li	a2,6
 8001eac:	8782                	jr	a5
 8001eae:	ed05                	bnez	a0,8001ee6 <_ZN67_$LT$gd32vf103xx_hal..serial..Error$u20$as$u20$core..fmt..Debug$GT$3fmt17h64788800725db47dE+0x60>
 8001eb0:	4dd0                	lw	a2,28(a1)
 8001eb2:	4d88                	lw	a0,24(a1)
 8001eb4:	465c                	lw	a5,12(a2)
 8001eb6:	080035b7          	lui	a1,0x8003
 8001eba:	38b58593          	addi	a1,a1,907 # 800338b <.Lanon.a3253abe55c45a025617bb90117944e7.92>
 8001ebe:	461d                	li	a2,7
 8001ec0:	8782                	jr	a5
 8001ec2:	4dd0                	lw	a2,28(a1)
 8001ec4:	4d88                	lw	a0,24(a1)
 8001ec6:	465c                	lw	a5,12(a2)
 8001ec8:	080035b7          	lui	a1,0x8003
 8001ecc:	38458593          	addi	a1,a1,900 # 8003384 <.Lanon.a3253abe55c45a025617bb90117944e7.82>
 8001ed0:	461d                	li	a2,7
 8001ed2:	8782                	jr	a5
 8001ed4:	4dd0                	lw	a2,28(a1)
 8001ed6:	4d88                	lw	a0,24(a1)
 8001ed8:	465c                	lw	a5,12(a2)
 8001eda:	080035b7          	lui	a1,0x8003
 8001ede:	37958593          	addi	a1,a1,889 # 8003379 <.Lanon.a3253abe55c45a025617bb90117944e7.81>
 8001ee2:	462d                	li	a2,11
 8001ee4:	8782                	jr	a5
 8001ee6:	4dd0                	lw	a2,28(a1)
 8001ee8:	4d88                	lw	a0,24(a1)
 8001eea:	465c                	lw	a5,12(a2)
 8001eec:	080035b7          	lui	a1,0x8003
 8001ef0:	39258593          	addi	a1,a1,914 # 8003392 <.Lanon.a3253abe55c45a025617bb90117944e7.91>
 8001ef4:	4615                	li	a2,5
 8001ef6:	8782                	jr	a5

08001ef8 <rust_begin_unwind>:
 8001ef8:	0330000f          	fence	rw,rw
 8001efc:	a001                	j	8001efc <rust_begin_unwind+0x4>

08001efe <DefaultExceptionHandler>:
 8001efe:	a001                	j	8001efe <DefaultExceptionHandler>

08001f00 <DefaultInterruptHandler>:
 8001f00:	a001                	j	8001f00 <DefaultInterruptHandler>

08001f02 <default_pre_init>:
 8001f02:	8082                	ret

08001f04 <default_mp_hook>:
 8001f04:	1141                	addi	sp,sp,-16
 8001f06:	c606                	sw	ra,12(sp)
 8001f08:	00000097          	auipc	ra,0x0
 8001f0c:	2fe080e7          	jalr	766(ra) # 8002206 <__read_mhartid>
 8001f10:	c511                	beqz	a0,8001f1c <default_mp_hook+0x18>
 8001f12:	00000097          	auipc	ra,0x0
 8001f16:	2ee080e7          	jalr	750(ra) # 8002200 <__wfi>
 8001f1a:	bfe5                	j	8001f12 <default_mp_hook+0xe>
 8001f1c:	4505                	li	a0,1
 8001f1e:	40b2                	lw	ra,12(sp)
 8001f20:	0141                	addi	sp,sp,16
 8001f22:	8082                	ret

08001f24 <_setup_interrupts>:
 8001f24:	20000293          	li	t0,512
 8001f28:	7d02a073          	csrs	0x7d0,t0
 8001f2c:	00000297          	auipc	t0,0x0
 8001f30:	0d428293          	addi	t0,t0,212 # 8002000 <vectors>
 8001f34:	30729073          	csrw	0x307,t0
 8001f38:	00000297          	auipc	t0,0x0
 8001f3c:	02828293          	addi	t0,t0,40 # 8001f60 <_irq_handler>
 8001f40:	7ec29073          	csrw	0x7ec,t0
 8001f44:	7ec0e073          	csrsi	0x7ec,1
 8001f48:	ffffe297          	auipc	t0,0xffffe
 8001f4c:	1b828293          	addi	t0,t0,440 # 8000100 <_start_trap>
 8001f50:	fc02f293          	andi	t0,t0,-64
 8001f54:	0032e293          	ori	t0,t0,3
 8001f58:	30529073          	csrw	mtvec,t0
 8001f5c:	8082                	ret
	...

08001f60 <_irq_handler>:
 8001f60:	715d                	addi	sp,sp,-80
 8001f62:	c006                	sw	ra,0(sp)
 8001f64:	c212                	sw	tp,4(sp)
 8001f66:	c416                	sw	t0,8(sp)
 8001f68:	c61a                	sw	t1,12(sp)
 8001f6a:	c81e                	sw	t2,16(sp)
 8001f6c:	ca2a                	sw	a0,20(sp)
 8001f6e:	cc2e                	sw	a1,24(sp)
 8001f70:	ce32                	sw	a2,28(sp)
 8001f72:	d036                	sw	a3,32(sp)
 8001f74:	d23a                	sw	a4,36(sp)
 8001f76:	d43e                	sw	a5,40(sp)
 8001f78:	d642                	sw	a6,44(sp)
 8001f7a:	d846                	sw	a7,48(sp)
 8001f7c:	da72                	sw	t3,52(sp)
 8001f7e:	dc76                	sw	t4,56(sp)
 8001f80:	de7a                	sw	t5,60(sp)
 8001f82:	c0fe                	sw	t6,64(sp)
 8001f84:	7ee8d073          	csrwi	0x7ee,17
 8001f88:	7ef95073          	csrwi	0x7ef,18
 8001f8c:	7eb9d073          	csrwi	0x7eb,19
 8001f90:	7ed090f3          	csrrw	ra,0x7ed,ra
 8001f94:	30047073          	csrci	mstatus,8
 8001f98:	42b6                	lw	t0,76(sp)
 8001f9a:	7c429073          	csrw	0x7c4,t0
 8001f9e:	42a6                	lw	t0,72(sp)
 8001fa0:	34129073          	csrw	mepc,t0
 8001fa4:	4296                	lw	t0,68(sp)
 8001fa6:	34229073          	csrw	mcause,t0
 8001faa:	4082                	lw	ra,0(sp)
 8001fac:	4212                	lw	tp,4(sp)
 8001fae:	42a2                	lw	t0,8(sp)
 8001fb0:	4332                	lw	t1,12(sp)
 8001fb2:	43c2                	lw	t2,16(sp)
 8001fb4:	4552                	lw	a0,20(sp)
 8001fb6:	45e2                	lw	a1,24(sp)
 8001fb8:	4672                	lw	a2,28(sp)
 8001fba:	5682                	lw	a3,32(sp)
 8001fbc:	5712                	lw	a4,36(sp)
 8001fbe:	57a2                	lw	a5,40(sp)
 8001fc0:	5832                	lw	a6,44(sp)
 8001fc2:	58c2                	lw	a7,48(sp)
 8001fc4:	5e52                	lw	t3,52(sp)
 8001fc6:	5ee2                	lw	t4,56(sp)
 8001fc8:	5f72                	lw	t5,60(sp)
 8001fca:	4f86                	lw	t6,64(sp)
 8001fcc:	6161                	addi	sp,sp,80
 8001fce:	30200073          	mret
	...

08002000 <vectors>:
	...

08002200 <__wfi>:
 8002200:	10500073          	wfi
 8002204:	8082                	ret

08002206 <__read_mhartid>:
 8002206:	f1402573          	csrr	a0,mhartid
 800220a:	8082                	ret

0800220c <__read_mstatus>:
 800220c:	30002573          	csrr	a0,mstatus
 8002210:	8082                	ret

08002212 <__set_mstatus>:
 8002212:	30052073          	csrs	mstatus,a0
 8002216:	8082                	ret

08002218 <__clear_mstatus>:
 8002218:	30053073          	csrc	mstatus,a0
 800221c:	8082                	ret

0800221e <__read_mcause>:
 800221e:	34202573          	csrr	a0,mcause
 8002222:	8082                	ret

08002224 <memcpy>:
 8002224:	ca11                	beqz	a2,8002238 <memcpy+0x14>
 8002226:	86aa                	mv	a3,a0
 8002228:	00058703          	lb	a4,0(a1)
 800222c:	00e68023          	sb	a4,0(a3)
 8002230:	167d                	addi	a2,a2,-1
 8002232:	0685                	addi	a3,a3,1
 8002234:	0585                	addi	a1,a1,1
 8002236:	fa6d                	bnez	a2,8002228 <memcpy+0x4>
 8002238:	8082                	ret

0800223a <memset>:
 800223a:	c619                	beqz	a2,8002248 <memset+0xe>
 800223c:	86aa                	mv	a3,a0
 800223e:	00b68023          	sb	a1,0(a3)
 8002242:	167d                	addi	a2,a2,-1
 8002244:	0685                	addi	a3,a3,1
 8002246:	fe65                	bnez	a2,800223e <memset+0x4>
 8002248:	8082                	ret

0800224a <default_setup_interrupts>:
 800224a:	ffffe297          	auipc	t0,0xffffe
 800224e:	eb628293          	addi	t0,t0,-330 # 8000100 <_start_trap>
 8002252:	30529073          	csrw	mtvec,t0
 8002256:	8082                	ret

08002258 <abort>:
 8002258:	a001                	j	8002258 <abort>
