
target/riscv32imac-unknown-none-elf/release/longan_net:     file format elf32-littleriscv


Disassembly of section .text:

08000000 <_start>:
 8000000:	080000b7          	lui	ra,0x8000
 8000004:	00808067          	jr	8(ra) # 8000008 <_abs_start>

08000008 <_abs_start>:
 8000008:	30405073          	csrwi	mie,0
 800000c:	34405073          	csrwi	mip,0
 8000010:	4081                	li	ra,0
 8000012:	4101                	li	sp,0
 8000014:	4181                	li	gp,0
 8000016:	4201                	li	tp,0
 8000018:	4281                	li	t0,0
 800001a:	4301                	li	t1,0
 800001c:	4381                	li	t2,0
 800001e:	4401                	li	s0,0
 8000020:	4481                	li	s1,0
 8000022:	4501                	li	a0,0
 8000024:	4581                	li	a1,0
 8000026:	4601                	li	a2,0
 8000028:	4681                	li	a3,0
 800002a:	4701                	li	a4,0
 800002c:	4781                	li	a5,0
 800002e:	4801                	li	a6,0
 8000030:	4881                	li	a7,0
 8000032:	4901                	li	s2,0
 8000034:	4981                	li	s3,0
 8000036:	4a01                	li	s4,0
 8000038:	4a81                	li	s5,0
 800003a:	4b01                	li	s6,0
 800003c:	4b81                	li	s7,0
 800003e:	4c01                	li	s8,0
 8000040:	4c81                	li	s9,0
 8000042:	4d01                	li	s10,0
 8000044:	4d81                	li	s11,0
 8000046:	4e01                	li	t3,0
 8000048:	4e81                	li	t4,0
 800004a:	4f01                	li	t5,0
 800004c:	4f81                	li	t6,0
 800004e:	18000197          	auipc	gp,0x18000
 8000052:	7b218193          	addi	gp,gp,1970 # 20000800 <__global_pointer$>
 8000056:	f1402673          	csrr	a2,mhartid
 800005a:	000002b7          	lui	t0,0x0
 800005e:	00028293          	mv	t0,t0
 8000062:	00c2f463          	bgeu	t0,a2,800006a <_abs_start+0x62>
 8000066:	1f20206f          	j	8002258 <abort>
 800006a:	18008117          	auipc	sp,0x18008
 800006e:	f9610113          	addi	sp,sp,-106 # 20008000 <_stack_start>
 8000072:	000012b7          	lui	t0,0x1
 8000076:	80028293          	addi	t0,t0,-2048 # 800 <_hart_stack_size>
 800007a:	025602b3          	mul	t0,a2,t0
 800007e:	40510133          	sub	sp,sp,t0
 8000082:	00010433          	add	s0,sp,zero
 8000086:	0040006f          	j	800008a <_start_rust>

0800008a <_start_rust>:
 800008a:	1141                	addi	sp,sp,-16
 800008c:	c606                	sw	ra,12(sp)
 800008e:	00002097          	auipc	ra,0x2
 8000092:	e76080e7          	jalr	-394(ra) # 8001f04 <default_mp_hook>
 8000096:	c921                	beqz	a0,80000e6 <_start_rust+0x5c>
 8000098:	00002097          	auipc	ra,0x2
 800009c:	e6a080e7          	jalr	-406(ra) # 8001f02 <default_pre_init>
 80000a0:	20000537          	lui	a0,0x20000
 80000a4:	00450513          	addi	a0,a0,4 # 20000004 <_ebss>
 80000a8:	200005b7          	lui	a1,0x20000
 80000ac:	00058593          	mv	a1,a1
 80000b0:	00a5f763          	bgeu	a1,a0,80000be <_start_rust+0x34>
 80000b4:	0005a023          	sw	zero,0(a1) # 20000000 <_edata>
 80000b8:	0591                	addi	a1,a1,4
 80000ba:	fea5ede3          	bltu	a1,a0,80000b4 <_start_rust+0x2a>
 80000be:	20000537          	lui	a0,0x20000
 80000c2:	00050513          	mv	a0,a0
 80000c6:	200005b7          	lui	a1,0x20000
 80000ca:	00058593          	mv	a1,a1
 80000ce:	00a5fc63          	bgeu	a1,a0,80000e6 <_start_rust+0x5c>
 80000d2:	08003637          	lui	a2,0x8003
 80000d6:	3d060613          	addi	a2,a2,976 # 80033d0 <_sidata>
 80000da:	4214                	lw	a3,0(a2)
 80000dc:	c194                	sw	a3,0(a1)
 80000de:	0591                	addi	a1,a1,4
 80000e0:	0611                	addi	a2,a2,4
 80000e2:	fea5ece3          	bltu	a1,a0,80000da <_start_rust+0x50>
 80000e6:	00002097          	auipc	ra,0x2
 80000ea:	e3e080e7          	jalr	-450(ra) # 8001f24 <_setup_interrupts>
 80000ee:	00000097          	auipc	ra,0x0
 80000f2:	0ee080e7          	jalr	238(ra) # 80001dc <main>
	...

08000100 <_start_trap>:
 8000100:	7139                	addi	sp,sp,-64
 8000102:	c006                	sw	ra,0(sp)
 8000104:	c216                	sw	t0,4(sp)
 8000106:	c41a                	sw	t1,8(sp)
 8000108:	c61e                	sw	t2,12(sp)
 800010a:	c872                	sw	t3,16(sp)
 800010c:	ca76                	sw	t4,20(sp)
 800010e:	cc7a                	sw	t5,24(sp)
 8000110:	ce7e                	sw	t6,28(sp)
 8000112:	d02a                	sw	a0,32(sp)
 8000114:	d22e                	sw	a1,36(sp)
 8000116:	d432                	sw	a2,40(sp)
 8000118:	d636                	sw	a3,44(sp)
 800011a:	d83a                	sw	a4,48(sp)
 800011c:	da3e                	sw	a5,52(sp)
 800011e:	dc42                	sw	a6,56(sp)
 8000120:	de46                	sw	a7,60(sp)
 8000122:	00010533          	add	a0,sp,zero
 8000126:	05a000ef          	jal	ra,8000180 <_start_trap_rust>
 800012a:	4082                	lw	ra,0(sp)
 800012c:	4292                	lw	t0,4(sp)
 800012e:	4322                	lw	t1,8(sp)
 8000130:	43b2                	lw	t2,12(sp)
 8000132:	4e42                	lw	t3,16(sp)
 8000134:	4ed2                	lw	t4,20(sp)
 8000136:	4f62                	lw	t5,24(sp)
 8000138:	4ff2                	lw	t6,28(sp)
 800013a:	5502                	lw	a0,32(sp)
 800013c:	5592                	lw	a1,36(sp)
 800013e:	5622                	lw	a2,40(sp)
 8000140:	56b2                	lw	a3,44(sp)
 8000142:	5742                	lw	a4,48(sp)
 8000144:	57d2                	lw	a5,52(sp)
 8000146:	5862                	lw	a6,56(sp)
 8000148:	58f2                	lw	a7,60(sp)
 800014a:	6121                	addi	sp,sp,64
 800014c:	30200073          	mret
	...

08000180 <_start_trap_rust>:
 8000180:	1141                	addi	sp,sp,-16
 8000182:	c606                	sw	ra,12(sp)
 8000184:	c422                	sw	s0,8(sp)
 8000186:	842a                	mv	s0,a0
 8000188:	00002097          	auipc	ra,0x2
 800018c:	096080e7          	jalr	150(ra) # 800221e <__read_mcause>
 8000190:	55fd                	li	a1,-1
 8000192:	00a5da63          	bge	a1,a0,80001a6 <_start_trap_rust+0x26>
 8000196:	8522                	mv	a0,s0
 8000198:	4422                	lw	s0,8(sp)
 800019a:	40b2                	lw	ra,12(sp)
 800019c:	0141                	addi	sp,sp,16
 800019e:	00002317          	auipc	t1,0x2
 80001a2:	d6030067          	jr	-672(t1) # 8001efe <DefaultExceptionHandler>
 80001a6:	800005b7          	lui	a1,0x80000
 80001aa:	15fd                	addi	a1,a1,-1
 80001ac:	8d6d                	and	a0,a0,a1
 80001ae:	45b1                	li	a1,12
 80001b0:	00b57e63          	bgeu	a0,a1,80001cc <_start_trap_rust+0x4c>
 80001b4:	080035b7          	lui	a1,0x8003
 80001b8:	3a058593          	addi	a1,a1,928 # 80033a0 <__INTERRUPTS>
 80001bc:	050a                	slli	a0,a0,0x2
 80001be:	952e                	add	a0,a0,a1
 80001c0:	411c                	lw	a5,0(a0)
 80001c2:	c789                	beqz	a5,80001cc <_start_trap_rust+0x4c>
 80001c4:	4422                	lw	s0,8(sp)
 80001c6:	40b2                	lw	ra,12(sp)
 80001c8:	0141                	addi	sp,sp,16
 80001ca:	8782                	jr	a5
 80001cc:	4422                	lw	s0,8(sp)
 80001ce:	40b2                	lw	ra,12(sp)
 80001d0:	0141                	addi	sp,sp,16
 80001d2:	00002317          	auipc	t1,0x2
 80001d6:	d2e30067          	jr	-722(t1) # 8001f00 <DefaultInterruptHandler>

080001da <_ZN4core3ptr13drop_in_place17he94a63149fd0b496E>:
 80001da:	8082                	ret

080001dc <main>:
 80001dc:	81010113          	addi	sp,sp,-2032
 80001e0:	7e112623          	sw	ra,2028(sp)
 80001e4:	7e812423          	sw	s0,2024(sp)
 80001e8:	7e912223          	sw	s1,2020(sp)
 80001ec:	7f212023          	sw	s2,2016(sp)
 80001f0:	7d312e23          	sw	s3,2012(sp)
 80001f4:	7d412c23          	sw	s4,2008(sp)
 80001f8:	7d512a23          	sw	s5,2004(sp)
 80001fc:	7d612823          	sw	s6,2000(sp)
 8000200:	7d712623          	sw	s7,1996(sp)
 8000204:	7d812423          	sw	s8,1992(sp)
 8000208:	7d912223          	sw	s9,1988(sp)
 800020c:	7da12023          	sw	s10,1984(sp)
 8000210:	7bb12e23          	sw	s11,1980(sp)
 8000214:	651d                	lui	a0,0x7
 8000216:	13050513          	addi	a0,a0,304 # 7130 <_hart_stack_size+0x6930>
 800021a:	40a10133          	sub	sp,sp,a0
 800021e:	00002097          	auipc	ra,0x2
 8000222:	fee080e7          	jalr	-18(ra) # 800220c <__read_mstatus>
 8000226:	842a                	mv	s0,a0
 8000228:	4521                	li	a0,8
 800022a:	00002097          	auipc	ra,0x2
 800022e:	fee080e7          	jalr	-18(ra) # 8002218 <__clear_mstatus>
 8000232:	20000537          	lui	a0,0x20000
 8000236:	00154583          	lbu	a1,1(a0) # 20000001 <DEVICE_PERIPHERALS>
 800023a:	4481                	li	s1,0
 800023c:	e199                	bnez	a1,8000242 <main+0x66>
 800023e:	2d70106f          	j	8001d14 <main+0x1b38>
 8000242:	00847513          	andi	a0,s0,8
 8000246:	c119                	beqz	a0,800024c <main+0x70>
 8000248:	2dd0106f          	j	8001d24 <main+0x1b48>
 800024c:	e099                	bnez	s1,8000252 <main+0x76>
 800024e:	2e70106f          	j	8001d34 <main+0x1b58>
 8000252:	4681                	li	a3,0
 8000254:	4805                	li	a6,1
 8000256:	48b5                	li	a7,13
 8000258:	42b1                	li	t0,12
 800025a:	007a1537          	lui	a0,0x7a1
 800025e:	20050e13          	addi	t3,a0,512 # 7a1200 <_hart_stack_size+0x7a0a00>
 8000262:	066ff537          	lui	a0,0x66ff
 8000266:	30050793          	addi	a5,a0,768 # 66ff300 <_hart_stack_size+0x66feb00>
 800026a:	433d                	li	t1,15
 800026c:	6521                	lui	a0,0x8
 800026e:	00350393          	addi	t2,a0,3 # 8003 <_hart_stack_size+0x7803>
 8000272:	4605                	li	a2,1
 8000274:	a00d                	j	8000296 <main+0xba>
 8000276:	4401                	li	s0,0
 8000278:	00b2b6b3          	sltu	a3,t0,a1
 800027c:	0035b713          	sltiu	a4,a1,3
 8000280:	00144413          	xori	s0,s0,1
 8000284:	8f61                	and	a4,a4,s0
 8000286:	029504b3          	mul	s1,a0,s1
 800028a:	8cbd                	xor	s1,s1,a5
 800028c:	0014b493          	seqz	s1,s1
 8000290:	8f65                	and	a4,a4,s1
 8000292:	962e                	add	a2,a2,a1
 8000294:	ef15                	bnez	a4,80002d0 <main+0xf4>
 8000296:	85b2                	mv	a1,a2
 8000298:	0ff6f513          	andi	a0,a3,255
 800029c:	00a03533          	snez	a0,a0
 80002a0:	00c8b633          	sltu	a2,a7,a2
 80002a4:	8d51                	or	a0,a0,a2
 80002a6:	c119                	beqz	a0,80002ac <main+0xd0>
 80002a8:	3710106f          	j	8001e18 <main+0x1c3c>
 80002ac:	e199                	bnez	a1,80002b2 <main+0xd6>
 80002ae:	3750106f          	j	8001e22 <main+0x1c46>
 80002b2:	02be54b3          	divu	s1,t3,a1
 80002b6:	0297d533          	divu	a0,a5,s1
 80002ba:	00d5b613          	sltiu	a2,a1,13
 80002be:	faa36ce3          	bltu	t1,a0,8000276 <main+0x9a>
 80002c2:	00a816b3          	sll	a3,a6,a0
 80002c6:	0076f6b3          	and	a3,a3,t2
 80002ca:	4405                	li	s0,1
 80002cc:	f6d5                	bnez	a3,8000278 <main+0x9c>
 80002ce:	b765                	j	8000276 <main+0x9a>
 80002d0:	ffe50613          	addi	a2,a0,-2
 80002d4:	0ff67693          	andi	a3,a2,255
 80002d8:	4735                	li	a4,13
 80002da:	00e6ed63          	bltu	a3,a4,80002f4 <main+0x118>
 80002de:	ff050613          	addi	a2,a0,-16
 80002e2:	0ff67613          	andi	a2,a2,255
 80002e6:	46c5                	li	a3,17
 80002e8:	00d66463          	bltu	a2,a3,80002f0 <main+0x114>
 80002ec:	34b0106f          	j	8001e36 <main+0x1c5a>
 80002f0:	fff50613          	addi	a2,a0,-1
 80002f4:	40021537          	lui	a0,0x40021
 80002f8:	4114                	lw	a3,0(a0)
 80002fa:	05bd                	addi	a1,a1,15
 80002fc:	0016e693          	ori	a3,a3,1
 8000300:	c114                	sw	a3,0(a0)
 8000302:	4114                	lw	a3,0(a0)
 8000304:	8a89                	andi	a3,a3,2
 8000306:	def5                	beqz	a3,8000302 <main+0x126>
 8000308:	40021537          	lui	a0,0x40021
 800030c:	4154                	lw	a3,4(a0)
 800030e:	9af1                	andi	a3,a3,-4
 8000310:	c154                	sw	a3,4(a0)
 8000312:	4114                	lw	a3,0(a0)
 8000314:	ff000737          	lui	a4,0xff000
 8000318:	177d                	addi	a4,a4,-1
 800031a:	8ef9                	and	a3,a3,a4
 800031c:	c114                	sw	a3,0(a0)
 800031e:	4154                	lw	a3,4(a0)
 8000320:	f0f6f693          	andi	a3,a3,-241
 8000324:	c154                	sw	a3,4(a0)
 8000326:	4154                	lw	a3,4(a0)
 8000328:	8ff6f693          	andi	a3,a3,-1793
 800032c:	4006e693          	ori	a3,a3,1024
 8000330:	c154                	sw	a3,4(a0)
 8000332:	4154                	lw	a3,4(a0)
 8000334:	7771                	lui	a4,0xffffc
 8000336:	7ff70713          	addi	a4,a4,2047 # ffffc7ff <_stack_start+0xdfff47ff>
 800033a:	8ef9                	and	a3,a3,a4
 800033c:	c154                	sw	a3,4(a0)
 800033e:	4114                	lw	a3,0(a0)
 8000340:	6741                	lui	a4,0x10
 8000342:	8ed9                	or	a3,a3,a4
 8000344:	c114                	sw	a3,0(a0)
 8000346:	000206b7          	lui	a3,0x20
 800034a:	4118                	lw	a4,0(a0)
 800034c:	8f75                	and	a4,a4,a3
 800034e:	df75                	beqz	a4,800034a <main+0x16e>
 8000350:	40021537          	lui	a0,0x40021
 8000354:	5554                	lw	a3,44(a0)
 8000356:	7741                	lui	a4,0xffff0
 8000358:	177d                	addi	a4,a4,-1
 800035a:	8ef9                	and	a3,a3,a4
 800035c:	d554                	sw	a3,44(a0)
 800035e:	5554                	lw	a3,44(a0)
 8000360:	9ac1                	andi	a3,a3,-16
 8000362:	89bd                	andi	a1,a1,15
 8000364:	8dd5                	or	a1,a1,a3
 8000366:	d54c                	sw	a1,44(a0)
 8000368:	414c                	lw	a1,4(a0)
 800036a:	66c1                	lui	a3,0x10
 800036c:	8dd5                	or	a1,a1,a3
 800036e:	c14c                	sw	a1,4(a0)
 8000370:	414c                	lw	a1,4(a0)
 8000372:	dfc406b7          	lui	a3,0xdfc40
 8000376:	16fd                	addi	a3,a3,-1
 8000378:	8df5                	and	a1,a1,a3
 800037a:	01067693          	andi	a3,a2,16
 800037e:	06e6                	slli	a3,a3,0x19
 8000380:	8a3d                	andi	a2,a2,15
 8000382:	064a                	slli	a2,a2,0x12
 8000384:	8e55                	or	a2,a2,a3
 8000386:	8dd1                	or	a1,a1,a2
 8000388:	c14c                	sw	a1,4(a0)
 800038a:	410c                	lw	a1,0(a0)
 800038c:	01000637          	lui	a2,0x1000
 8000390:	8dd1                	or	a1,a1,a2
 8000392:	c10c                	sw	a1,0(a0)
 8000394:	020005b7          	lui	a1,0x2000
 8000398:	4110                	lw	a2,0(a0)
 800039a:	8e6d                	and	a2,a2,a1
 800039c:	de75                	beqz	a2,8000398 <main+0x1bc>
 800039e:	400214b7          	lui	s1,0x40021
 80003a2:	40c8                	lw	a0,4(s1)
 80003a4:	9971                	andi	a0,a0,-4
 80003a6:	00256513          	ori	a0,a0,2
 80003aa:	c0c8                	sw	a0,4(s1)
 80003ac:	40c8                	lw	a0,4(s1)
 80003ae:	ff4005b7          	lui	a1,0xff400
 80003b2:	15fd                	addi	a1,a1,-1
 80003b4:	8d6d                	and	a0,a0,a1
 80003b6:	c0c8                	sw	a0,4(s1)
 80003b8:	00002097          	auipc	ra,0x2
 80003bc:	e54080e7          	jalr	-428(ra) # 800220c <__read_mstatus>
 80003c0:	842a                	mv	s0,a0
 80003c2:	4521                	li	a0,8
 80003c4:	00002097          	auipc	ra,0x2
 80003c8:	e54080e7          	jalr	-428(ra) # 8002218 <__clear_mstatus>
 80003cc:	4c88                	lw	a0,24(s1)
 80003ce:	00156513          	ori	a0,a0,1
 80003d2:	00847593          	andi	a1,s0,8
 80003d6:	cc88                	sw	a0,24(s1)
 80003d8:	c591                	beqz	a1,80003e4 <main+0x208>
 80003da:	4521                	li	a0,8
 80003dc:	00002097          	auipc	ra,0x2
 80003e0:	e36080e7          	jalr	-458(ra) # 8002212 <__set_mstatus>
 80003e4:	00002097          	auipc	ra,0x2
 80003e8:	e28080e7          	jalr	-472(ra) # 800220c <__read_mstatus>
 80003ec:	842a                	mv	s0,a0
 80003ee:	4521                	li	a0,8
 80003f0:	00002097          	auipc	ra,0x2
 80003f4:	e28080e7          	jalr	-472(ra) # 8002218 <__clear_mstatus>
 80003f8:	44c8                	lw	a0,12(s1)
 80003fa:	00156513          	ori	a0,a0,1
 80003fe:	c4c8                	sw	a0,12(s1)
 8000400:	44c8                	lw	a0,12(s1)
 8000402:	9979                	andi	a0,a0,-2
 8000404:	00847593          	andi	a1,s0,8
 8000408:	c4c8                	sw	a0,12(s1)
 800040a:	c591                	beqz	a1,8000416 <main+0x23a>
 800040c:	4521                	li	a0,8
 800040e:	00002097          	auipc	ra,0x2
 8000412:	e04080e7          	jalr	-508(ra) # 8002212 <__set_mstatus>
 8000416:	00002097          	auipc	ra,0x2
 800041a:	df6080e7          	jalr	-522(ra) # 800220c <__read_mstatus>
 800041e:	842a                	mv	s0,a0
 8000420:	4521                	li	a0,8
 8000422:	00002097          	auipc	ra,0x2
 8000426:	df6080e7          	jalr	-522(ra) # 8002218 <__clear_mstatus>
 800042a:	400214b7          	lui	s1,0x40021
 800042e:	4c88                	lw	a0,24(s1)
 8000430:	00456513          	ori	a0,a0,4
 8000434:	00847593          	andi	a1,s0,8
 8000438:	cc88                	sw	a0,24(s1)
 800043a:	c591                	beqz	a1,8000446 <main+0x26a>
 800043c:	4521                	li	a0,8
 800043e:	00002097          	auipc	ra,0x2
 8000442:	dd4080e7          	jalr	-556(ra) # 8002212 <__set_mstatus>
 8000446:	00002097          	auipc	ra,0x2
 800044a:	dc6080e7          	jalr	-570(ra) # 800220c <__read_mstatus>
 800044e:	842a                	mv	s0,a0
 8000450:	4521                	li	a0,8
 8000452:	00002097          	auipc	ra,0x2
 8000456:	dc6080e7          	jalr	-570(ra) # 8002218 <__clear_mstatus>
 800045a:	44c8                	lw	a0,12(s1)
 800045c:	00456513          	ori	a0,a0,4
 8000460:	c4c8                	sw	a0,12(s1)
 8000462:	44c8                	lw	a0,12(s1)
 8000464:	996d                	andi	a0,a0,-5
 8000466:	00847593          	andi	a1,s0,8
 800046a:	c4c8                	sw	a0,12(s1)
 800046c:	c591                	beqz	a1,8000478 <main+0x29c>
 800046e:	4521                	li	a0,8
 8000470:	00002097          	auipc	ra,0x2
 8000474:	da2080e7          	jalr	-606(ra) # 8002212 <__set_mstatus>
 8000478:	00002097          	auipc	ra,0x2
 800047c:	d94080e7          	jalr	-620(ra) # 800220c <__read_mstatus>
 8000480:	842a                	mv	s0,a0
 8000482:	4521                	li	a0,8
 8000484:	00002097          	auipc	ra,0x2
 8000488:	d94080e7          	jalr	-620(ra) # 8002218 <__clear_mstatus>
 800048c:	400114b7          	lui	s1,0x40011
 8000490:	8044a503          	lw	a0,-2044(s1) # 40010804 <_stack_start+0x20008804>
 8000494:	f0f57513          	andi	a0,a0,-241
 8000498:	0b056513          	ori	a0,a0,176
 800049c:	00847593          	andi	a1,s0,8
 80004a0:	80a4a223          	sw	a0,-2044(s1)
 80004a4:	c591                	beqz	a1,80004b0 <main+0x2d4>
 80004a6:	4521                	li	a0,8
 80004a8:	00002097          	auipc	ra,0x2
 80004ac:	d6a080e7          	jalr	-662(ra) # 8002212 <__set_mstatus>
 80004b0:	757d                	lui	a0,0xfffff
 80004b2:	0ff50913          	addi	s2,a0,255 # fffff0ff <_stack_start+0xdfff70ff>
 80004b6:	00002097          	auipc	ra,0x2
 80004ba:	d56080e7          	jalr	-682(ra) # 800220c <__read_mstatus>
 80004be:	842a                	mv	s0,a0
 80004c0:	4521                	li	a0,8
 80004c2:	00002097          	auipc	ra,0x2
 80004c6:	d56080e7          	jalr	-682(ra) # 8002218 <__clear_mstatus>
 80004ca:	8044a503          	lw	a0,-2044(s1)
 80004ce:	01257533          	and	a0,a0,s2
 80004d2:	40056513          	ori	a0,a0,1024
 80004d6:	00847593          	andi	a1,s0,8
 80004da:	80a4a223          	sw	a0,-2044(s1)
 80004de:	c591                	beqz	a1,80004ea <main+0x30e>
 80004e0:	4521                	li	a0,8
 80004e2:	00002097          	auipc	ra,0x2
 80004e6:	d30080e7          	jalr	-720(ra) # 8002212 <__set_mstatus>
 80004ea:	00002097          	auipc	ra,0x2
 80004ee:	d22080e7          	jalr	-734(ra) # 800220c <__read_mstatus>
 80004f2:	842a                	mv	s0,a0
 80004f4:	4521                	li	a0,8
 80004f6:	00002097          	auipc	ra,0x2
 80004fa:	d22080e7          	jalr	-734(ra) # 8002218 <__clear_mstatus>
 80004fe:	400214b7          	lui	s1,0x40021
 8000502:	4c88                	lw	a0,24(s1)
 8000504:	6991                	lui	s3,0x4
 8000506:	01356533          	or	a0,a0,s3
 800050a:	00847593          	andi	a1,s0,8
 800050e:	cc88                	sw	a0,24(s1)
 8000510:	c591                	beqz	a1,800051c <main+0x340>
 8000512:	4521                	li	a0,8
 8000514:	00002097          	auipc	ra,0x2
 8000518:	cfe080e7          	jalr	-770(ra) # 8002212 <__set_mstatus>
 800051c:	00002097          	auipc	ra,0x2
 8000520:	cf0080e7          	jalr	-784(ra) # 800220c <__read_mstatus>
 8000524:	842a                	mv	s0,a0
 8000526:	4521                	li	a0,8
 8000528:	00002097          	auipc	ra,0x2
 800052c:	cf0080e7          	jalr	-784(ra) # 8002218 <__clear_mstatus>
 8000530:	44c8                	lw	a0,12(s1)
 8000532:	01356533          	or	a0,a0,s3
 8000536:	c4c8                	sw	a0,12(s1)
 8000538:	44c8                	lw	a0,12(s1)
 800053a:	75f1                	lui	a1,0xffffc
 800053c:	15fd                	addi	a1,a1,-1
 800053e:	8d6d                	and	a0,a0,a1
 8000540:	00847593          	andi	a1,s0,8
 8000544:	c4c8                	sw	a0,12(s1)
 8000546:	c591                	beqz	a1,8000552 <main+0x376>
 8000548:	4521                	li	a0,8
 800054a:	00002097          	auipc	ra,0x2
 800054e:	cc8080e7          	jalr	-824(ra) # 8002212 <__set_mstatus>
 8000552:	00002097          	auipc	ra,0x2
 8000556:	cba080e7          	jalr	-838(ra) # 800220c <__read_mstatus>
 800055a:	842a                	mv	s0,a0
 800055c:	4521                	li	a0,8
 800055e:	00002097          	auipc	ra,0x2
 8000562:	cba080e7          	jalr	-838(ra) # 8002218 <__clear_mstatus>
 8000566:	400114b7          	lui	s1,0x40011
 800056a:	8044a503          	lw	a0,-2044(s1) # 40010804 <_stack_start+0x20008804>
 800056e:	f0f57513          	andi	a0,a0,-241
 8000572:	0b056513          	ori	a0,a0,176
 8000576:	00847593          	andi	a1,s0,8
 800057a:	80a4a223          	sw	a0,-2044(s1)
 800057e:	c591                	beqz	a1,800058a <main+0x3ae>
 8000580:	4521                	li	a0,8
 8000582:	00002097          	auipc	ra,0x2
 8000586:	c90080e7          	jalr	-880(ra) # 8002212 <__set_mstatus>
 800058a:	00002097          	auipc	ra,0x2
 800058e:	c82080e7          	jalr	-894(ra) # 800220c <__read_mstatus>
 8000592:	842a                	mv	s0,a0
 8000594:	4521                	li	a0,8
 8000596:	00002097          	auipc	ra,0x2
 800059a:	c82080e7          	jalr	-894(ra) # 8002218 <__clear_mstatus>
 800059e:	8044a503          	lw	a0,-2044(s1)
 80005a2:	01257533          	and	a0,a0,s2
 80005a6:	40056513          	ori	a0,a0,1024
 80005aa:	00847593          	andi	a1,s0,8
 80005ae:	80a4a223          	sw	a0,-2044(s1)
 80005b2:	c591                	beqz	a1,80005be <main+0x3e2>
 80005b4:	4521                	li	a0,8
 80005b6:	00002097          	auipc	ra,0x2
 80005ba:	c5c080e7          	jalr	-932(ra) # 8002212 <__set_mstatus>
 80005be:	40010537          	lui	a0,0x40010
 80005c2:	00052223          	sw	zero,4(a0) # 40010004 <_stack_start+0x20008004>
 80005c6:	40014537          	lui	a0,0x40014
 80005ca:	0c000593          	li	a1,192
 80005ce:	80b52a23          	sw	a1,-2028(a0) # 40013814 <_stack_start+0x2000b814>
 80005d2:	3a900593          	li	a1,937
 80005d6:	80b52423          	sw	a1,-2040(a0)
 80005da:	80c52583          	lw	a1,-2036(a0)
 80005de:	90090613          	addi	a2,s2,-1792
 80005e2:	8df1                	and	a1,a1,a2
 80005e4:	80b52623          	sw	a1,-2036(a0)
 80005e8:	81052583          	lw	a1,-2032(a0)
 80005ec:	7675                	lui	a2,0xffffd
 80005ee:	167d                	addi	a2,a2,-1
 80005f0:	8df1                	and	a1,a1,a2
 80005f2:	80b52823          	sw	a1,-2032(a0)
 80005f6:	80c52583          	lw	a1,-2036(a0)
 80005fa:	6609                	lui	a2,0x2
 80005fc:	0631                	addi	a2,a2,12
 80005fe:	8dd1                	or	a1,a1,a2
 8000600:	80b52623          	sw	a1,-2036(a0)
 8000604:	80c52583          	lw	a1,-2036(a0)
 8000608:	0205e593          	ori	a1,a1,32
 800060c:	80b52623          	sw	a1,-2036(a0)
 8000610:	00002097          	auipc	ra,0x2
 8000614:	bfc080e7          	jalr	-1028(ra) # 800220c <__read_mstatus>
 8000618:	842a                	mv	s0,a0
 800061a:	4521                	li	a0,8
 800061c:	00002097          	auipc	ra,0x2
 8000620:	bfc080e7          	jalr	-1028(ra) # 8002218 <__clear_mstatus>
 8000624:	400214b7          	lui	s1,0x40021
 8000628:	4c88                	lw	a0,24(s1)
 800062a:	01056513          	ori	a0,a0,16
 800062e:	00847593          	andi	a1,s0,8
 8000632:	cc88                	sw	a0,24(s1)
 8000634:	c591                	beqz	a1,8000640 <main+0x464>
 8000636:	4521                	li	a0,8
 8000638:	00002097          	auipc	ra,0x2
 800063c:	bda080e7          	jalr	-1062(ra) # 8002212 <__set_mstatus>
 8000640:	00002097          	auipc	ra,0x2
 8000644:	bcc080e7          	jalr	-1076(ra) # 800220c <__read_mstatus>
 8000648:	842a                	mv	s0,a0
 800064a:	4521                	li	a0,8
 800064c:	00002097          	auipc	ra,0x2
 8000650:	bcc080e7          	jalr	-1076(ra) # 8002218 <__clear_mstatus>
 8000654:	44c8                	lw	a0,12(s1)
 8000656:	01056513          	ori	a0,a0,16
 800065a:	c4c8                	sw	a0,12(s1)
 800065c:	44c8                	lw	a0,12(s1)
 800065e:	993d                	andi	a0,a0,-17
 8000660:	00847593          	andi	a1,s0,8
 8000664:	c4c8                	sw	a0,12(s1)
 8000666:	c591                	beqz	a1,8000672 <main+0x496>
 8000668:	4521                	li	a0,8
 800066a:	00002097          	auipc	ra,0x2
 800066e:	ba8080e7          	jalr	-1112(ra) # 8002212 <__set_mstatus>
 8000672:	400114b7          	lui	s1,0x40011
 8000676:	20000537          	lui	a0,0x20000
 800067a:	c888                	sw	a0,16(s1)
 800067c:	00002097          	auipc	ra,0x2
 8000680:	b90080e7          	jalr	-1136(ra) # 800220c <__read_mstatus>
 8000684:	842a                	mv	s0,a0
 8000686:	4521                	li	a0,8
 8000688:	00002097          	auipc	ra,0x2
 800068c:	b90080e7          	jalr	-1136(ra) # 8002218 <__clear_mstatus>
 8000690:	40c8                	lw	a0,4(s1)
 8000692:	ff1005b7          	lui	a1,0xff100
 8000696:	15fd                	addi	a1,a1,-1
 8000698:	8d6d                	and	a0,a0,a1
 800069a:	003005b7          	lui	a1,0x300
 800069e:	8d4d                	or	a0,a0,a1
 80006a0:	00847593          	andi	a1,s0,8
 80006a4:	c0c8                	sw	a0,4(s1)
 80006a6:	c591                	beqz	a1,80006b2 <main+0x4d6>
 80006a8:	4521                	li	a0,8
 80006aa:	00002097          	auipc	ra,0x2
 80006ae:	b68080e7          	jalr	-1176(ra) # 8002212 <__set_mstatus>
 80006b2:	00020537          	lui	a0,0x20
 80006b6:	80a4a823          	sw	a0,-2032(s1) # 40010810 <_stack_start+0x20008810>
 80006ba:	00002097          	auipc	ra,0x2
 80006be:	b52080e7          	jalr	-1198(ra) # 800220c <__read_mstatus>
 80006c2:	842a                	mv	s0,a0
 80006c4:	4521                	li	a0,8
 80006c6:	00002097          	auipc	ra,0x2
 80006ca:	b52080e7          	jalr	-1198(ra) # 8002218 <__clear_mstatus>
 80006ce:	8004a503          	lw	a0,-2048(s1)
 80006d2:	f0f57513          	andi	a0,a0,-241
 80006d6:	03056513          	ori	a0,a0,48
 80006da:	00847593          	andi	a1,s0,8
 80006de:	80a4a023          	sw	a0,-2048(s1)
 80006e2:	c591                	beqz	a1,80006ee <main+0x512>
 80006e4:	4521                	li	a0,8
 80006e6:	00002097          	auipc	ra,0x2
 80006ea:	b2c080e7          	jalr	-1236(ra) # 8002212 <__set_mstatus>
 80006ee:	400114b7          	lui	s1,0x40011
 80006f2:	00040537          	lui	a0,0x40
 80006f6:	80a4a823          	sw	a0,-2032(s1) # 40010810 <_stack_start+0x20008810>
 80006fa:	00002097          	auipc	ra,0x2
 80006fe:	b12080e7          	jalr	-1262(ra) # 800220c <__read_mstatus>
 8000702:	842a                	mv	s0,a0
 8000704:	4521                	li	a0,8
 8000706:	00002097          	auipc	ra,0x2
 800070a:	b12080e7          	jalr	-1262(ra) # 8002218 <__clear_mstatus>
 800070e:	8004a503          	lw	a0,-2048(s1)
 8000712:	01257533          	and	a0,a0,s2
 8000716:	30056513          	ori	a0,a0,768
 800071a:	00847593          	andi	a1,s0,8
 800071e:	80a4a023          	sw	a0,-2048(s1)
 8000722:	c591                	beqz	a1,800072e <main+0x552>
 8000724:	4521                	li	a0,8
 8000726:	00002097          	auipc	ra,0x2
 800072a:	aec080e7          	jalr	-1300(ra) # 8002212 <__set_mstatus>
 800072e:	00002097          	auipc	ra,0x2
 8000732:	ade080e7          	jalr	-1314(ra) # 800220c <__read_mstatus>
 8000736:	842a                	mv	s0,a0
 8000738:	4521                	li	a0,8
 800073a:	00002097          	auipc	ra,0x2
 800073e:	ade080e7          	jalr	-1314(ra) # 8002218 <__clear_mstatus>
 8000742:	200004b7          	lui	s1,0x20000
 8000746:	4505                	li	a0,1
 8000748:	00847593          	andi	a1,s0,8
 800074c:	00a48023          	sb	a0,0(s1) # 20000000 <_edata>
 8000750:	c591                	beqz	a1,800075c <main+0x580>
 8000752:	4521                	li	a0,8
 8000754:	00002097          	auipc	ra,0x2
 8000758:	abe080e7          	jalr	-1346(ra) # 8002212 <__set_mstatus>
 800075c:	6509                	lui	a0,0x2
 800075e:	b0050513          	addi	a0,a0,-1280 # 1b00 <_hart_stack_size+0x1300>
 8000762:	6591                	lui	a1,0x4
 8000764:	26458593          	addi	a1,a1,612 # 4264 <_hart_stack_size+0x3a64>
 8000768:	958a                	add	a1,a1,sp
 800076a:	85ae                	mv	a1,a1
 800076c:	cc2a                	sw	a0,24(sp)
 800076e:	952e                	add	a0,a0,a1
 8000770:	c82a                	sw	a0,16(sp)
 8000772:	40058513          	addi	a0,a1,1024
 8000776:	40050513          	addi	a0,a0,1024
 800077a:	c62a                	sw	a0,12(sp)
 800077c:	40014db7          	lui	s11,0x40014
 8000780:	0a000413          	li	s0,160
 8000784:	804d8513          	addi	a0,s11,-2044 # 40013804 <_stack_start+0x2000b804>
 8000788:	ca2a                	sw	a0,20(sp)
 800078a:	03800913          	li	s2,56
 800078e:	64410c13          	addi	s8,sp,1604
 8000792:	6505                	lui	a0,0x1
 8000794:	c6450513          	addi	a0,a0,-924 # c64 <_hart_stack_size+0x464>
 8000798:	950a                	add	a0,a0,sp
 800079a:	8baa                	mv	s7,a0
 800079c:	08002537          	lui	a0,0x8002
 80007a0:	2c850c93          	addi	s9,a0,712 # 80022c8 <.L__unnamed_1>
 80007a4:	4995                	li	s3,5
 80007a6:	03000b13          	li	s6,48
 80007aa:	6505                	lui	a0,0x1
 80007ac:	80050513          	addi	a0,a0,-2048 # 800 <_hart_stack_size>
 80007b0:	ce2a                	sw	a0,28(sp)
 80007b2:	48000a93          	li	s5,1152
 80007b6:	4a6d                	li	s4,27
 80007b8:	20a00d13          	li	s10,522
 80007bc:	a019                	j	80007c2 <main+0x5e6>
 80007be:	0a000413          	li	s0,160
 80007c2:	40011537          	lui	a0,0x40011
 80007c6:	200005b7          	lui	a1,0x20000
 80007ca:	c90c                	sw	a1,16(a0)
 80007cc:	000205b7          	lui	a1,0x20
 80007d0:	80b52823          	sw	a1,-2032(a0) # 40010810 <_stack_start+0x20008810>
 80007d4:	4591                	li	a1,4
 80007d6:	80b52823          	sw	a1,-2032(a0)
 80007da:	62000613          	li	a2,1568
 80007de:	1048                	addi	a0,sp,36
 80007e0:	4581                	li	a1,0
 80007e2:	00002097          	auipc	ra,0x2
 80007e6:	a58080e7          	jalr	-1448(ra) # 800223a <memset>
 80007ea:	800da503          	lw	a0,-2048(s11)
 80007ee:	00f57593          	andi	a1,a0,15
 80007f2:	c199                	beqz	a1,80007f8 <main+0x61c>
 80007f4:	5620106f          	j	8001d56 <main+0x1b7a>
 80007f8:	02057513          	andi	a0,a0,32
 80007fc:	d57d                	beqz	a0,80007ea <main+0x60e>
 80007fe:	804dc503          	lbu	a0,-2044(s11)
 8000802:	fe8514e3          	bne	a0,s0,80007ea <main+0x60e>
 8000806:	00002097          	auipc	ra,0x2
 800080a:	a06080e7          	jalr	-1530(ra) # 800220c <__read_mstatus>
 800080e:	d02a                	sw	a0,32(sp)
 8000810:	4521                	li	a0,8
 8000812:	00002097          	auipc	ra,0x2
 8000816:	a06080e7          	jalr	-1530(ra) # 8002218 <__clear_mstatus>
 800081a:	0004c503          	lbu	a0,0(s1)
 800081e:	1040                	addi	s0,sp,36
 8000820:	44f1                	li	s1,28
 8000822:	c919                	beqz	a0,8000838 <main+0x65c>
 8000824:	800da503          	lw	a0,-2048(s11)
 8000828:	08057513          	andi	a0,a0,128
 800082c:	dd65                	beqz	a0,8000824 <main+0x648>
 800082e:	4552                	lw	a0,20(sp)
 8000830:	0a000593          	li	a1,160
 8000834:	00b50023          	sb	a1,0(a0)
 8000838:	5502                	lw	a0,32(sp)
 800083a:	8921                	andi	a0,a0,8
 800083c:	c519                	beqz	a0,800084a <main+0x66e>
 800083e:	4521                	li	a0,8
 8000840:	00002097          	auipc	ra,0x2
 8000844:	9d2080e7          	jalr	-1582(ra) # 8002212 <__set_mstatus>
 8000848:	44f1                	li	s1,28
 800084a:	4501                	li	a0,0
 800084c:	4601                	li	a2,0
 800084e:	00150593          	addi	a1,a0,1
 8000852:	00160693          	addi	a3,a2,1 # 2001 <_hart_stack_size+0x1801>
 8000856:	800da703          	lw	a4,-2048(s11)
 800085a:	00f77793          	andi	a5,a4,15
 800085e:	c399                	beqz	a5,8000864 <main+0x688>
 8000860:	4f60106f          	j	8001d56 <main+0x1b7a>
 8000864:	02077713          	andi	a4,a4,32
 8000868:	d77d                	beqz	a4,8000856 <main+0x67a>
 800086a:	804dc703          	lbu	a4,-2044(s11)
 800086e:	070a                	slli	a4,a4,0x2
 8000870:	032507b3          	mul	a5,a0,s2
 8000874:	97a2                	add	a5,a5,s0
 8000876:	0606                	slli	a2,a2,0x1
 8000878:	963e                	add	a2,a2,a5
 800087a:	00e61023          	sh	a4,0(a2)
 800087e:	8636                	mv	a2,a3
 8000880:	fc9699e3          	bne	a3,s1,8000852 <main+0x676>
 8000884:	852e                	mv	a0,a1
 8000886:	fc9593e3          	bne	a1,s1,800084c <main+0x670>
 800088a:	6509                	lui	a0,0x2
 800088c:	400115b7          	lui	a1,0x40011
 8000890:	c988                	sw	a0,16(a1)
 8000892:	4509                	li	a0,2
 8000894:	80a5a823          	sw	a0,-2032(a1) # 40010810 <_stack_start+0x20008810>
 8000898:	00040537          	lui	a0,0x40
 800089c:	80a5a823          	sw	a0,-2032(a1)
 80008a0:	62000613          	li	a2,1568
 80008a4:	8562                	mv	a0,s8
 80008a6:	85a2                	mv	a1,s0
 80008a8:	00002097          	auipc	ra,0x2
 80008ac:	97c080e7          	jalr	-1668(ra) # 8002224 <memcpy>
 80008b0:	855e                	mv	a0,s7
 80008b2:	4581                	li	a1,0
 80008b4:	4662                	lw	a2,24(sp)
 80008b6:	00002097          	auipc	ra,0x2
 80008ba:	984080e7          	jalr	-1660(ra) # 800223a <memset>
 80008be:	4581                	li	a1,0
 80008c0:	42e1                	li	t0,24
 80008c2:	4781                	li	a5,0
 80008c4:	00158813          	addi	a6,a1,1
 80008c8:	4701                	li	a4,0
 80008ca:	00178893          	addi	a7,a5,1
 80008ce:	019704b3          	add	s1,a4,s9
 80008d2:	0044c503          	lbu	a0,4(s1)
 80008d6:	00a9f463          	bgeu	s3,a0,80008de <main+0x702>
 80008da:	4700106f          	j	8001d4a <main+0x1b6e>
 80008de:	0024c683          	lbu	a3,2(s1)
 80008e2:	00f6f613          	andi	a2,a3,15
 80008e6:	962e                	add	a2,a2,a1
 80008e8:	00ca7463          	bgeu	s4,a2,80008f0 <main+0x714>
 80008ec:	49e0106f          	j	8001d8a <main+0x1bae>
 80008f0:	8291                	srli	a3,a3,0x4
 80008f2:	96be                	add	a3,a3,a5
 80008f4:	00da7463          	bgeu	s4,a3,80008fc <main+0x720>
 80008f8:	4a00106f          	j	8001d98 <main+0x1bbc>
 80008fc:	03658433          	mul	s0,a1,s6
 8000900:	03550533          	mul	a0,a0,s5
 8000904:	955e                	add	a0,a0,s7
 8000906:	9522                	add	a0,a0,s0
 8000908:	03260633          	mul	a2,a2,s2
 800090c:	9662                	add	a2,a2,s8
 800090e:	0686                	slli	a3,a3,0x1
 8000910:	9636                	add	a2,a2,a3
 8000912:	00061603          	lh	a2,0(a2)
 8000916:	00049683          	lh	a3,0(s1)
 800091a:	00179493          	slli	s1,a5,0x1
 800091e:	9526                	add	a0,a0,s1
 8000920:	00055483          	lhu	s1,0(a0) # 40000 <_hart_stack_size+0x3f800>
 8000924:	02c68633          	mul	a2,a3,a2
 8000928:	41f65693          	srai	a3,a2,0x1f
 800092c:	82d9                	srli	a3,a3,0x16
 800092e:	9636                	add	a2,a2,a3
 8000930:	8229                	srli	a2,a2,0xa
 8000932:	9626                	add	a2,a2,s1
 8000934:	0719                	addi	a4,a4,6
 8000936:	00c51023          	sh	a2,0(a0)
 800093a:	f9a71ae3          	bne	a4,s10,80008ce <main+0x6f2>
 800093e:	87c6                	mv	a5,a7
 8000940:	f85894e3          	bne	a7,t0,80008c8 <main+0x6ec>
 8000944:	85c2                	mv	a1,a6
 8000946:	f6581ee3          	bne	a6,t0,80008c2 <main+0x6e6>
 800094a:	6511                	lui	a0,0x4
 800094c:	26450513          	addi	a0,a0,612 # 4264 <_hart_stack_size+0x3a64>
 8000950:	950a                	add	a0,a0,sp
 8000952:	84aa                	mv	s1,a0
 8000954:	8526                	mv	a0,s1
 8000956:	85de                	mv	a1,s7
 8000958:	4462                	lw	s0,24(sp)
 800095a:	8622                	mv	a2,s0
 800095c:	00002097          	auipc	ra,0x2
 8000960:	8c8080e7          	jalr	-1848(ra) # 8002224 <memcpy>
 8000964:	85a6                	mv	a1,s1
 8000966:	8622                	mv	a2,s0
 8000968:	4481                	li	s1,0
 800096a:	4501                	li	a0,0
 800096c:	4681                	li	a3,0
 800096e:	872e                	mv	a4,a1
 8000970:	42c2                	lw	t0,16(sp)
 8000972:	537d                	li	t1,-1
 8000974:	ce89                	beqz	a3,800098e <main+0x7b2>
 8000976:	87b6                	mv	a5,a3
 8000978:	00d50b63          	beq	a0,a3,800098e <main+0x7b2>
 800097c:	00079403          	lh	s0,0(a5)
 8000980:	00278693          	addi	a3,a5,2
 8000984:	fe8348e3          	blt	t1,s0,8000974 <main+0x798>
 8000988:	00079023          	sh	zero,0(a5)
 800098c:	b7e5                	j	8000974 <main+0x798>
 800098e:	00a036b3          	snez	a3,a0
 8000992:	011547b3          	xor	a5,a0,a7
 8000996:	00f037b3          	snez	a5,a5
 800099a:	8efd                	and	a3,a3,a5
 800099c:	e68d                	bnez	a3,80009c6 <main+0x7ea>
 800099e:	00903533          	snez	a0,s1
 80009a2:	0104c6b3          	xor	a3,s1,a6
 80009a6:	00d036b3          	snez	a3,a3
 80009aa:	8d75                	and	a0,a0,a3
 80009ac:	e901                	bnez	a0,80009bc <main+0x7e0>
 80009ae:	02570163          	beq	a4,t0,80009d0 <main+0x7f4>
 80009b2:	84ba                	mv	s1,a4
 80009b4:	9732                	add	a4,a4,a2
 80009b6:	dce5                	beqz	s1,80009ae <main+0x7d2>
 80009b8:	00c48833          	add	a6,s1,a2
 80009bc:	c891                	beqz	s1,80009d0 <main+0x7f4>
 80009be:	48048893          	addi	a7,s1,1152
 80009c2:	8526                	mv	a0,s1
 80009c4:	84c6                	mv	s1,a7
 80009c6:	c509                	beqz	a0,80009d0 <main+0x7f4>
 80009c8:	86aa                	mv	a3,a0
 80009ca:	03050513          	addi	a0,a0,48
 80009ce:	b75d                	j	8000974 <main+0x798>
 80009d0:	6509                	lui	a0,0x2
 80009d2:	76450513          	addi	a0,a0,1892 # 2764 <_hart_stack_size+0x1f64>
 80009d6:	950a                	add	a0,a0,sp
 80009d8:	852a                	mv	a0,a0
 80009da:	00002097          	auipc	ra,0x2
 80009de:	84a080e7          	jalr	-1974(ra) # 8002224 <memcpy>
 80009e2:	6c000613          	li	a2,1728
 80009e6:	6519                	lui	a0,0x6
 80009e8:	d6450513          	addi	a0,a0,-668 # 5d64 <_hart_stack_size+0x5564>
 80009ec:	950a                	add	a0,a0,sp
 80009ee:	852a                	mv	a0,a0
 80009f0:	4581                	li	a1,0
 80009f2:	00002097          	auipc	ra,0x2
 80009f6:	848080e7          	jalr	-1976(ra) # 800223a <memset>
 80009fa:	4501                	li	a0,0
 80009fc:	4685                	li	a3,1
 80009fe:	6599                	lui	a1,0x6
 8000a00:	d7058593          	addi	a1,a1,-656 # 5d70 <_hart_stack_size+0x5570>
 8000a04:	958a                	add	a1,a1,sp
 8000a06:	85ae                	mv	a1,a1
 8000a08:	6609                	lui	a2,0x2
 8000a0a:	79460613          	addi	a2,a2,1940 # 2794 <_hart_stack_size+0x1f94>
 8000a0e:	960a                	add	a2,a2,sp
 8000a10:	88b2                	mv	a7,a2
 8000a12:	12000293          	li	t0,288
 8000a16:	4319                	li	t1,6
 8000a18:	6619                	lui	a2,0x6
 8000a1a:	42460613          	addi	a2,a2,1060 # 6424 <_hart_stack_size+0x5c24>
 8000a1e:	960a                	add	a2,a2,sp
 8000a20:	83b2                	mv	t2,a2
 8000a22:	a811                	j	8000a36 <main+0x85a>
 8000a24:	00553693          	sltiu	a3,a0,5
 8000a28:	48088893          	addi	a7,a7,1152
 8000a2c:	12058593          	addi	a1,a1,288
 8000a30:	8542                	mv	a0,a6
 8000a32:	40680363          	beq	a6,t1,8000e38 <main+0xc5c>
 8000a36:	4781                	li	a5,0
 8000a38:	00150813          	addi	a6,a0,1
 8000a3c:	8646                	mv	a2,a7
 8000a3e:	a801                	j	8000a4e <main+0x872>
 8000a40:	00971523          	sh	s1,10(a4) # ffff000a <_stack_start+0xdffe800a>
 8000a44:	07e1                	addi	a5,a5,24
 8000a46:	06060613          	addi	a2,a2,96
 8000a4a:	fc578de3          	beq	a5,t0,8000a24 <main+0x848>
 8000a4e:	0016f713          	andi	a4,a3,1
 8000a52:	e319                	bnez	a4,8000a58 <main+0x87c>
 8000a54:	2f60106f          	j	8001d4a <main+0x1b6e>
 8000a58:	fd061403          	lh	s0,-48(a2)
 8000a5c:	1c805063          	blez	s0,8000c1c <main+0xa40>
 8000a60:	fd261703          	lh	a4,-46(a2)
 8000a64:	01041493          	slli	s1,s0,0x10
 8000a68:	84c1                	srai	s1,s1,0x10
 8000a6a:	1c975163          	bge	a4,s1,8000c2c <main+0xa50>
 8000a6e:	00061703          	lh	a4,0(a2)
 8000a72:	01041493          	slli	s1,s0,0x10
 8000a76:	84c1                	srai	s1,s1,0x10
 8000a78:	1c975263          	bge	a4,s1,8000c3c <main+0xa60>
 8000a7c:	00261703          	lh	a4,2(a2)
 8000a80:	01041493          	slli	s1,s0,0x10
 8000a84:	84c1                	srai	s1,s1,0x10
 8000a86:	1c975363          	bge	a4,s1,8000c4c <main+0xa70>
 8000a8a:	fd461483          	lh	s1,-44(a2)
 8000a8e:	00f58733          	add	a4,a1,a5
 8000a92:	fe871a23          	sh	s0,-12(a4)
 8000a96:	1c905463          	blez	s1,8000c5e <main+0xa82>
 8000a9a:	fd661403          	lh	s0,-42(a2)
 8000a9e:	1c945563          	bge	s0,s1,8000c68 <main+0xa8c>
 8000aa2:	00461403          	lh	s0,4(a2)
 8000aa6:	1c945663          	bge	s0,s1,8000c72 <main+0xa96>
 8000aaa:	00661403          	lh	s0,6(a2)
 8000aae:	1c945763          	bge	s0,s1,8000c7c <main+0xaa0>
 8000ab2:	fd861403          	lh	s0,-40(a2)
 8000ab6:	fe971b23          	sh	s1,-10(a4)
 8000aba:	1c805863          	blez	s0,8000c8a <main+0xaae>
 8000abe:	fda61483          	lh	s1,-38(a2)
 8000ac2:	1c84d963          	bge	s1,s0,8000c94 <main+0xab8>
 8000ac6:	00861483          	lh	s1,8(a2)
 8000aca:	1c84da63          	bge	s1,s0,8000c9e <main+0xac2>
 8000ace:	00a61483          	lh	s1,10(a2)
 8000ad2:	1c84db63          	bge	s1,s0,8000ca8 <main+0xacc>
 8000ad6:	fdc61483          	lh	s1,-36(a2)
 8000ada:	fe871c23          	sh	s0,-8(a4)
 8000ade:	1c905c63          	blez	s1,8000cb6 <main+0xada>
 8000ae2:	fde61403          	lh	s0,-34(a2)
 8000ae6:	1c945d63          	bge	s0,s1,8000cc0 <main+0xae4>
 8000aea:	00c61403          	lh	s0,12(a2)
 8000aee:	1c945e63          	bge	s0,s1,8000cca <main+0xaee>
 8000af2:	00e61403          	lh	s0,14(a2)
 8000af6:	1c945f63          	bge	s0,s1,8000cd4 <main+0xaf8>
 8000afa:	fe061403          	lh	s0,-32(a2)
 8000afe:	fe971d23          	sh	s1,-6(a4)
 8000b02:	1e805063          	blez	s0,8000ce2 <main+0xb06>
 8000b06:	fe261483          	lh	s1,-30(a2)
 8000b0a:	1e84d163          	bge	s1,s0,8000cec <main+0xb10>
 8000b0e:	01061483          	lh	s1,16(a2)
 8000b12:	1e84d263          	bge	s1,s0,8000cf6 <main+0xb1a>
 8000b16:	01261483          	lh	s1,18(a2)
 8000b1a:	1e84d363          	bge	s1,s0,8000d00 <main+0xb24>
 8000b1e:	fe461483          	lh	s1,-28(a2)
 8000b22:	fe871e23          	sh	s0,-4(a4)
 8000b26:	1e905463          	blez	s1,8000d0e <main+0xb32>
 8000b2a:	fe661403          	lh	s0,-26(a2)
 8000b2e:	1e945563          	bge	s0,s1,8000d18 <main+0xb3c>
 8000b32:	01461403          	lh	s0,20(a2)
 8000b36:	1e945663          	bge	s0,s1,8000d22 <main+0xb46>
 8000b3a:	01661403          	lh	s0,22(a2)
 8000b3e:	1e945763          	bge	s0,s1,8000d2c <main+0xb50>
 8000b42:	fe861403          	lh	s0,-24(a2)
 8000b46:	fe971f23          	sh	s1,-2(a4)
 8000b4a:	1e805863          	blez	s0,8000d3a <main+0xb5e>
 8000b4e:	fea61483          	lh	s1,-22(a2)
 8000b52:	1e84d963          	bge	s1,s0,8000d44 <main+0xb68>
 8000b56:	01861483          	lh	s1,24(a2)
 8000b5a:	1e84da63          	bge	s1,s0,8000d4e <main+0xb72>
 8000b5e:	01a61483          	lh	s1,26(a2)
 8000b62:	1e84db63          	bge	s1,s0,8000d58 <main+0xb7c>
 8000b66:	fec61483          	lh	s1,-20(a2)
 8000b6a:	00871023          	sh	s0,0(a4)
 8000b6e:	1e905c63          	blez	s1,8000d66 <main+0xb8a>
 8000b72:	fee61403          	lh	s0,-18(a2)
 8000b76:	1e945d63          	bge	s0,s1,8000d70 <main+0xb94>
 8000b7a:	01c61403          	lh	s0,28(a2)
 8000b7e:	1e945e63          	bge	s0,s1,8000d7a <main+0xb9e>
 8000b82:	01e61403          	lh	s0,30(a2)
 8000b86:	1e945f63          	bge	s0,s1,8000d84 <main+0xba8>
 8000b8a:	ff061403          	lh	s0,-16(a2)
 8000b8e:	00971123          	sh	s1,2(a4)
 8000b92:	20805063          	blez	s0,8000d92 <main+0xbb6>
 8000b96:	ff261483          	lh	s1,-14(a2)
 8000b9a:	2084d163          	bge	s1,s0,8000d9c <main+0xbc0>
 8000b9e:	02061483          	lh	s1,32(a2)
 8000ba2:	2084d263          	bge	s1,s0,8000da6 <main+0xbca>
 8000ba6:	02261483          	lh	s1,34(a2)
 8000baa:	2084d363          	bge	s1,s0,8000db0 <main+0xbd4>
 8000bae:	ff461483          	lh	s1,-12(a2)
 8000bb2:	00871223          	sh	s0,4(a4)
 8000bb6:	20905463          	blez	s1,8000dbe <main+0xbe2>
 8000bba:	ff661403          	lh	s0,-10(a2)
 8000bbe:	20945563          	bge	s0,s1,8000dc8 <main+0xbec>
 8000bc2:	02461403          	lh	s0,36(a2)
 8000bc6:	20945663          	bge	s0,s1,8000dd2 <main+0xbf6>
 8000bca:	02661403          	lh	s0,38(a2)
 8000bce:	20945763          	bge	s0,s1,8000ddc <main+0xc00>
 8000bd2:	ff861403          	lh	s0,-8(a2)
 8000bd6:	00971323          	sh	s1,6(a4)
 8000bda:	20805863          	blez	s0,8000dea <main+0xc0e>
 8000bde:	ffa61483          	lh	s1,-6(a2)
 8000be2:	2084d963          	bge	s1,s0,8000df4 <main+0xc18>
 8000be6:	02861483          	lh	s1,40(a2)
 8000bea:	2084da63          	bge	s1,s0,8000dfe <main+0xc22>
 8000bee:	02a61483          	lh	s1,42(a2)
 8000bf2:	2084db63          	bge	s1,s0,8000e08 <main+0xc2c>
 8000bf6:	ffc61483          	lh	s1,-4(a2)
 8000bfa:	00871423          	sh	s0,8(a4)
 8000bfe:	20905c63          	blez	s1,8000e16 <main+0xc3a>
 8000c02:	ffe61403          	lh	s0,-2(a2)
 8000c06:	20945d63          	bge	s0,s1,8000e20 <main+0xc44>
 8000c0a:	02c61403          	lh	s0,44(a2)
 8000c0e:	20945e63          	bge	s0,s1,8000e2a <main+0xc4e>
 8000c12:	02e61403          	lh	s0,46(a2)
 8000c16:	e29445e3          	blt	s0,s1,8000a40 <main+0x864>
 8000c1a:	ac29                	j	8000e34 <main+0xc58>
 8000c1c:	4401                	li	s0,0
 8000c1e:	fd261703          	lh	a4,-46(a2)
 8000c22:	01041493          	slli	s1,s0,0x10
 8000c26:	84c1                	srai	s1,s1,0x10
 8000c28:	e49743e3          	blt	a4,s1,8000a6e <main+0x892>
 8000c2c:	843a                	mv	s0,a4
 8000c2e:	00061703          	lh	a4,0(a2)
 8000c32:	01041493          	slli	s1,s0,0x10
 8000c36:	84c1                	srai	s1,s1,0x10
 8000c38:	e49742e3          	blt	a4,s1,8000a7c <main+0x8a0>
 8000c3c:	843a                	mv	s0,a4
 8000c3e:	00261703          	lh	a4,2(a2)
 8000c42:	01041493          	slli	s1,s0,0x10
 8000c46:	84c1                	srai	s1,s1,0x10
 8000c48:	e49741e3          	blt	a4,s1,8000a8a <main+0x8ae>
 8000c4c:	843a                	mv	s0,a4
 8000c4e:	fd461483          	lh	s1,-44(a2)
 8000c52:	00f58733          	add	a4,a1,a5
 8000c56:	fe871a23          	sh	s0,-12(a4)
 8000c5a:	e49040e3          	bgtz	s1,8000a9a <main+0x8be>
 8000c5e:	4481                	li	s1,0
 8000c60:	fd661403          	lh	s0,-42(a2)
 8000c64:	e2944fe3          	blt	s0,s1,8000aa2 <main+0x8c6>
 8000c68:	84a2                	mv	s1,s0
 8000c6a:	00461403          	lh	s0,4(a2)
 8000c6e:	e2944ee3          	blt	s0,s1,8000aaa <main+0x8ce>
 8000c72:	84a2                	mv	s1,s0
 8000c74:	00661403          	lh	s0,6(a2)
 8000c78:	e2944de3          	blt	s0,s1,8000ab2 <main+0x8d6>
 8000c7c:	84a2                	mv	s1,s0
 8000c7e:	fd861403          	lh	s0,-40(a2)
 8000c82:	fe971b23          	sh	s1,-10(a4)
 8000c86:	e2804ce3          	bgtz	s0,8000abe <main+0x8e2>
 8000c8a:	4401                	li	s0,0
 8000c8c:	fda61483          	lh	s1,-38(a2)
 8000c90:	e284cbe3          	blt	s1,s0,8000ac6 <main+0x8ea>
 8000c94:	8426                	mv	s0,s1
 8000c96:	00861483          	lh	s1,8(a2)
 8000c9a:	e284cae3          	blt	s1,s0,8000ace <main+0x8f2>
 8000c9e:	8426                	mv	s0,s1
 8000ca0:	00a61483          	lh	s1,10(a2)
 8000ca4:	e284c9e3          	blt	s1,s0,8000ad6 <main+0x8fa>
 8000ca8:	8426                	mv	s0,s1
 8000caa:	fdc61483          	lh	s1,-36(a2)
 8000cae:	fe871c23          	sh	s0,-8(a4)
 8000cb2:	e29048e3          	bgtz	s1,8000ae2 <main+0x906>
 8000cb6:	4481                	li	s1,0
 8000cb8:	fde61403          	lh	s0,-34(a2)
 8000cbc:	e29447e3          	blt	s0,s1,8000aea <main+0x90e>
 8000cc0:	84a2                	mv	s1,s0
 8000cc2:	00c61403          	lh	s0,12(a2)
 8000cc6:	e29446e3          	blt	s0,s1,8000af2 <main+0x916>
 8000cca:	84a2                	mv	s1,s0
 8000ccc:	00e61403          	lh	s0,14(a2)
 8000cd0:	e29445e3          	blt	s0,s1,8000afa <main+0x91e>
 8000cd4:	84a2                	mv	s1,s0
 8000cd6:	fe061403          	lh	s0,-32(a2)
 8000cda:	fe971d23          	sh	s1,-6(a4)
 8000cde:	e28044e3          	bgtz	s0,8000b06 <main+0x92a>
 8000ce2:	4401                	li	s0,0
 8000ce4:	fe261483          	lh	s1,-30(a2)
 8000ce8:	e284c3e3          	blt	s1,s0,8000b0e <main+0x932>
 8000cec:	8426                	mv	s0,s1
 8000cee:	01061483          	lh	s1,16(a2)
 8000cf2:	e284c2e3          	blt	s1,s0,8000b16 <main+0x93a>
 8000cf6:	8426                	mv	s0,s1
 8000cf8:	01261483          	lh	s1,18(a2)
 8000cfc:	e284c1e3          	blt	s1,s0,8000b1e <main+0x942>
 8000d00:	8426                	mv	s0,s1
 8000d02:	fe461483          	lh	s1,-28(a2)
 8000d06:	fe871e23          	sh	s0,-4(a4)
 8000d0a:	e29040e3          	bgtz	s1,8000b2a <main+0x94e>
 8000d0e:	4481                	li	s1,0
 8000d10:	fe661403          	lh	s0,-26(a2)
 8000d14:	e0944fe3          	blt	s0,s1,8000b32 <main+0x956>
 8000d18:	84a2                	mv	s1,s0
 8000d1a:	01461403          	lh	s0,20(a2)
 8000d1e:	e0944ee3          	blt	s0,s1,8000b3a <main+0x95e>
 8000d22:	84a2                	mv	s1,s0
 8000d24:	01661403          	lh	s0,22(a2)
 8000d28:	e0944de3          	blt	s0,s1,8000b42 <main+0x966>
 8000d2c:	84a2                	mv	s1,s0
 8000d2e:	fe861403          	lh	s0,-24(a2)
 8000d32:	fe971f23          	sh	s1,-2(a4)
 8000d36:	e0804ce3          	bgtz	s0,8000b4e <main+0x972>
 8000d3a:	4401                	li	s0,0
 8000d3c:	fea61483          	lh	s1,-22(a2)
 8000d40:	e084cbe3          	blt	s1,s0,8000b56 <main+0x97a>
 8000d44:	8426                	mv	s0,s1
 8000d46:	01861483          	lh	s1,24(a2)
 8000d4a:	e084cae3          	blt	s1,s0,8000b5e <main+0x982>
 8000d4e:	8426                	mv	s0,s1
 8000d50:	01a61483          	lh	s1,26(a2)
 8000d54:	e084c9e3          	blt	s1,s0,8000b66 <main+0x98a>
 8000d58:	8426                	mv	s0,s1
 8000d5a:	fec61483          	lh	s1,-20(a2)
 8000d5e:	00871023          	sh	s0,0(a4)
 8000d62:	e09048e3          	bgtz	s1,8000b72 <main+0x996>
 8000d66:	4481                	li	s1,0
 8000d68:	fee61403          	lh	s0,-18(a2)
 8000d6c:	e09447e3          	blt	s0,s1,8000b7a <main+0x99e>
 8000d70:	84a2                	mv	s1,s0
 8000d72:	01c61403          	lh	s0,28(a2)
 8000d76:	e09446e3          	blt	s0,s1,8000b82 <main+0x9a6>
 8000d7a:	84a2                	mv	s1,s0
 8000d7c:	01e61403          	lh	s0,30(a2)
 8000d80:	e09445e3          	blt	s0,s1,8000b8a <main+0x9ae>
 8000d84:	84a2                	mv	s1,s0
 8000d86:	ff061403          	lh	s0,-16(a2)
 8000d8a:	00971123          	sh	s1,2(a4)
 8000d8e:	e08044e3          	bgtz	s0,8000b96 <main+0x9ba>
 8000d92:	4401                	li	s0,0
 8000d94:	ff261483          	lh	s1,-14(a2)
 8000d98:	e084c3e3          	blt	s1,s0,8000b9e <main+0x9c2>
 8000d9c:	8426                	mv	s0,s1
 8000d9e:	02061483          	lh	s1,32(a2)
 8000da2:	e084c2e3          	blt	s1,s0,8000ba6 <main+0x9ca>
 8000da6:	8426                	mv	s0,s1
 8000da8:	02261483          	lh	s1,34(a2)
 8000dac:	e084c1e3          	blt	s1,s0,8000bae <main+0x9d2>
 8000db0:	8426                	mv	s0,s1
 8000db2:	ff461483          	lh	s1,-12(a2)
 8000db6:	00871223          	sh	s0,4(a4)
 8000dba:	e09040e3          	bgtz	s1,8000bba <main+0x9de>
 8000dbe:	4481                	li	s1,0
 8000dc0:	ff661403          	lh	s0,-10(a2)
 8000dc4:	de944fe3          	blt	s0,s1,8000bc2 <main+0x9e6>
 8000dc8:	84a2                	mv	s1,s0
 8000dca:	02461403          	lh	s0,36(a2)
 8000dce:	de944ee3          	blt	s0,s1,8000bca <main+0x9ee>
 8000dd2:	84a2                	mv	s1,s0
 8000dd4:	02661403          	lh	s0,38(a2)
 8000dd8:	de944de3          	blt	s0,s1,8000bd2 <main+0x9f6>
 8000ddc:	84a2                	mv	s1,s0
 8000dde:	ff861403          	lh	s0,-8(a2)
 8000de2:	00971323          	sh	s1,6(a4)
 8000de6:	de804ce3          	bgtz	s0,8000bde <main+0xa02>
 8000dea:	4401                	li	s0,0
 8000dec:	ffa61483          	lh	s1,-6(a2)
 8000df0:	de84cbe3          	blt	s1,s0,8000be6 <main+0xa0a>
 8000df4:	8426                	mv	s0,s1
 8000df6:	02861483          	lh	s1,40(a2)
 8000dfa:	de84cae3          	blt	s1,s0,8000bee <main+0xa12>
 8000dfe:	8426                	mv	s0,s1
 8000e00:	02a61483          	lh	s1,42(a2)
 8000e04:	de84c9e3          	blt	s1,s0,8000bf6 <main+0xa1a>
 8000e08:	8426                	mv	s0,s1
 8000e0a:	ffc61483          	lh	s1,-4(a2)
 8000e0e:	00871423          	sh	s0,8(a4)
 8000e12:	de9048e3          	bgtz	s1,8000c02 <main+0xa26>
 8000e16:	4481                	li	s1,0
 8000e18:	ffe61403          	lh	s0,-2(a2)
 8000e1c:	de9447e3          	blt	s0,s1,8000c0a <main+0xa2e>
 8000e20:	84a2                	mv	s1,s0
 8000e22:	02c61403          	lh	s0,44(a2)
 8000e26:	de9446e3          	blt	s0,s1,8000c12 <main+0xa36>
 8000e2a:	84a2                	mv	s1,s0
 8000e2c:	02e61403          	lh	s0,46(a2)
 8000e30:	c09448e3          	blt	s0,s1,8000a40 <main+0x864>
 8000e34:	84a2                	mv	s1,s0
 8000e36:	b129                	j	8000a40 <main+0x864>
 8000e38:	851e                	mv	a0,t2
 8000e3a:	4581                	li	a1,0
 8000e3c:	4672                	lw	a2,28(sp)
 8000e3e:	00001097          	auipc	ra,0x1
 8000e42:	3fc080e7          	jalr	1020(ra) # 800223a <memset>
 8000e46:	6519                	lui	a0,0x6
 8000e48:	42450513          	addi	a0,a0,1060 # 6424 <_hart_stack_size+0x5c24>
 8000e4c:	950a                	add	a0,a0,sp
 8000e4e:	8f2a                	mv	t5,a0
 8000e50:	12000e93          	li	t4,288
 8000e54:	4881                	li	a7,0
 8000e56:	43e1                	li	t2,24
 8000e58:	6519                	lui	a0,0x6
 8000e5a:	d6450513          	addi	a0,a0,-668 # 5d64 <_hart_stack_size+0x5564>
 8000e5e:	950a                	add	a0,a0,sp
 8000e60:	8e2a                	mv	t3,a0
 8000e62:	4fbd                	li	t6,15
 8000e64:	40ad                	li	ra,11
 8000e66:	4401                	li	s0,0
 8000e68:	00188513          	addi	a0,a7,1
 8000e6c:	d02a                	sw	a0,32(sp)
 8000e6e:	019407b3          	add	a5,s0,s9
 8000e72:	20e7c603          	lbu	a2,526(a5)
 8000e76:	72cfe8e3          	bltu	t6,a2,8001da6 <main+0x1bca>
 8000e7a:	008c8533          	add	a0,s9,s0
 8000e7e:	20d54503          	lbu	a0,525(a0)
 8000e82:	6ca9e4e3          	bltu	s3,a0,8001d4a <main+0x1b6e>
 8000e86:	20c7c583          	lbu	a1,524(a5)
 8000e8a:	00f5f693          	andi	a3,a1,15
 8000e8e:	96c6                	add	a3,a3,a7
 8000e90:	72d0e2e3          	bltu	ra,a3,8001db4 <main+0x1bd8>
 8000e94:	0045d713          	srli	a4,a1,0x4
 8000e98:	0bf00493          	li	s1,191
 8000e9c:	72b4e3e3          	bltu	s1,a1,8001dc2 <main+0x1be6>
 8000ea0:	00761593          	slli	a1,a2,0x7
 8000ea4:	95fa                	add	a1,a1,t5
 8000ea6:	02768633          	mul	a2,a3,t2
 8000eaa:	03d50533          	mul	a0,a0,t4
 8000eae:	9572                	add	a0,a0,t3
 8000eb0:	9532                	add	a0,a0,a2
 8000eb2:	00171613          	slli	a2,a4,0x1
 8000eb6:	9532                	add	a0,a0,a2
 8000eb8:	00051503          	lh	a0,0(a0)
 8000ebc:	20a79603          	lh	a2,522(a5)
 8000ec0:	00489293          	slli	t0,a7,0x4
 8000ec4:	9596                	add	a1,a1,t0
 8000ec6:	0005d683          	lhu	a3,0(a1)
 8000eca:	02a60533          	mul	a0,a2,a0
 8000ece:	41f55613          	srai	a2,a0,0x1f
 8000ed2:	8259                	srli	a2,a2,0x16
 8000ed4:	9532                	add	a0,a0,a2
 8000ed6:	8129                	srli	a0,a0,0xa
 8000ed8:	9536                	add	a0,a0,a3
 8000eda:	0419                	addi	s0,s0,6
 8000edc:	00a59023          	sh	a0,0(a1)
 8000ee0:	4aa00813          	li	a6,1194
 8000ee4:	f90415e3          	bne	s0,a6,8000e6e <main+0xc92>
 8000ee8:	4401                	li	s0,0
 8000eea:	019404b3          	add	s1,s0,s9
 8000eee:	20e4c603          	lbu	a2,526(s1)
 8000ef2:	6acfeae3          	bltu	t6,a2,8001da6 <main+0x1bca>
 8000ef6:	008c8533          	add	a0,s9,s0
 8000efa:	20d54503          	lbu	a0,525(a0)
 8000efe:	64a9e6e3          	bltu	s3,a0,8001d4a <main+0x1b6e>
 8000f02:	20c4c583          	lbu	a1,524(s1)
 8000f06:	00f5f693          	andi	a3,a1,15
 8000f0a:	96c6                	add	a3,a3,a7
 8000f0c:	6ad0e4e3          	bltu	ra,a3,8001db4 <main+0x1bd8>
 8000f10:	0045d713          	srli	a4,a1,0x4
 8000f14:	0705                	addi	a4,a4,1
 8000f16:	0af00313          	li	t1,175
 8000f1a:	6ab364e3          	bltu	t1,a1,8001dc2 <main+0x1be6>
 8000f1e:	00761593          	slli	a1,a2,0x7
 8000f22:	95fa                	add	a1,a1,t5
 8000f24:	02768633          	mul	a2,a3,t2
 8000f28:	03d50533          	mul	a0,a0,t4
 8000f2c:	9572                	add	a0,a0,t3
 8000f2e:	9532                	add	a0,a0,a2
 8000f30:	00171613          	slli	a2,a4,0x1
 8000f34:	9532                	add	a0,a0,a2
 8000f36:	00051503          	lh	a0,0(a0)
 8000f3a:	20a49603          	lh	a2,522(s1)
 8000f3e:	9596                	add	a1,a1,t0
 8000f40:	00258693          	addi	a3,a1,2
 8000f44:	0025d583          	lhu	a1,2(a1)
 8000f48:	02a60533          	mul	a0,a2,a0
 8000f4c:	41f55613          	srai	a2,a0,0x1f
 8000f50:	8259                	srli	a2,a2,0x16
 8000f52:	9532                	add	a0,a0,a2
 8000f54:	8129                	srli	a0,a0,0xa
 8000f56:	952e                	add	a0,a0,a1
 8000f58:	0419                	addi	s0,s0,6
 8000f5a:	00a69023          	sh	a0,0(a3) # dfc40000 <_stack_start+0xbfc38000>
 8000f5e:	f90416e3          	bne	s0,a6,8000eea <main+0xd0e>
 8000f62:	4401                	li	s0,0
 8000f64:	019404b3          	add	s1,s0,s9
 8000f68:	20e4c603          	lbu	a2,526(s1)
 8000f6c:	62cfede3          	bltu	t6,a2,8001da6 <main+0x1bca>
 8000f70:	008c8533          	add	a0,s9,s0
 8000f74:	20d54503          	lbu	a0,525(a0)
 8000f78:	5ca9e9e3          	bltu	s3,a0,8001d4a <main+0x1b6e>
 8000f7c:	20c4c583          	lbu	a1,524(s1)
 8000f80:	00f5f693          	andi	a3,a1,15
 8000f84:	96c6                	add	a3,a3,a7
 8000f86:	62d0e7e3          	bltu	ra,a3,8001db4 <main+0x1bd8>
 8000f8a:	0045d713          	srli	a4,a1,0x4
 8000f8e:	0709                	addi	a4,a4,2
 8000f90:	09f00793          	li	a5,159
 8000f94:	62b7e7e3          	bltu	a5,a1,8001dc2 <main+0x1be6>
 8000f98:	00761593          	slli	a1,a2,0x7
 8000f9c:	95fa                	add	a1,a1,t5
 8000f9e:	02768633          	mul	a2,a3,t2
 8000fa2:	03d50533          	mul	a0,a0,t4
 8000fa6:	9572                	add	a0,a0,t3
 8000fa8:	9532                	add	a0,a0,a2
 8000faa:	00171613          	slli	a2,a4,0x1
 8000fae:	9532                	add	a0,a0,a2
 8000fb0:	00051503          	lh	a0,0(a0)
 8000fb4:	20a49603          	lh	a2,522(s1)
 8000fb8:	9596                	add	a1,a1,t0
 8000fba:	00458693          	addi	a3,a1,4
 8000fbe:	0045d583          	lhu	a1,4(a1)
 8000fc2:	02a60533          	mul	a0,a2,a0
 8000fc6:	41f55613          	srai	a2,a0,0x1f
 8000fca:	8259                	srli	a2,a2,0x16
 8000fcc:	9532                	add	a0,a0,a2
 8000fce:	8129                	srli	a0,a0,0xa
 8000fd0:	952e                	add	a0,a0,a1
 8000fd2:	0419                	addi	s0,s0,6
 8000fd4:	00a69023          	sh	a0,0(a3)
 8000fd8:	f90416e3          	bne	s0,a6,8000f64 <main+0xd88>
 8000fdc:	4401                	li	s0,0
 8000fde:	019404b3          	add	s1,s0,s9
 8000fe2:	20e4c603          	lbu	a2,526(s1)
 8000fe6:	5ccfe0e3          	bltu	t6,a2,8001da6 <main+0x1bca>
 8000fea:	008c8533          	add	a0,s9,s0
 8000fee:	20d54503          	lbu	a0,525(a0)
 8000ff2:	54a9ece3          	bltu	s3,a0,8001d4a <main+0x1b6e>
 8000ff6:	20c4c583          	lbu	a1,524(s1)
 8000ffa:	00f5f693          	andi	a3,a1,15
 8000ffe:	96c6                	add	a3,a3,a7
 8001000:	5ad0eae3          	bltu	ra,a3,8001db4 <main+0x1bd8>
 8001004:	0045d713          	srli	a4,a1,0x4
 8001008:	070d                	addi	a4,a4,3
 800100a:	08f00793          	li	a5,143
 800100e:	5ab7eae3          	bltu	a5,a1,8001dc2 <main+0x1be6>
 8001012:	00761593          	slli	a1,a2,0x7
 8001016:	95fa                	add	a1,a1,t5
 8001018:	02768633          	mul	a2,a3,t2
 800101c:	03d50533          	mul	a0,a0,t4
 8001020:	9572                	add	a0,a0,t3
 8001022:	9532                	add	a0,a0,a2
 8001024:	00171613          	slli	a2,a4,0x1
 8001028:	9532                	add	a0,a0,a2
 800102a:	00051503          	lh	a0,0(a0)
 800102e:	20a49603          	lh	a2,522(s1)
 8001032:	9596                	add	a1,a1,t0
 8001034:	00658693          	addi	a3,a1,6
 8001038:	0065d583          	lhu	a1,6(a1)
 800103c:	02a60533          	mul	a0,a2,a0
 8001040:	41f55613          	srai	a2,a0,0x1f
 8001044:	8259                	srli	a2,a2,0x16
 8001046:	9532                	add	a0,a0,a2
 8001048:	8129                	srli	a0,a0,0xa
 800104a:	952e                	add	a0,a0,a1
 800104c:	0419                	addi	s0,s0,6
 800104e:	00a69023          	sh	a0,0(a3)
 8001052:	f90416e3          	bne	s0,a6,8000fde <main+0xe02>
 8001056:	4401                	li	s0,0
 8001058:	06f00813          	li	a6,111
 800105c:	019404b3          	add	s1,s0,s9
 8001060:	20e4c603          	lbu	a2,526(s1)
 8001064:	54cfe1e3          	bltu	t6,a2,8001da6 <main+0x1bca>
 8001068:	008c8533          	add	a0,s9,s0
 800106c:	20d54503          	lbu	a0,525(a0)
 8001070:	4ca9ede3          	bltu	s3,a0,8001d4a <main+0x1b6e>
 8001074:	20c4c583          	lbu	a1,524(s1)
 8001078:	00f5f693          	andi	a3,a1,15
 800107c:	96c6                	add	a3,a3,a7
 800107e:	52d0ebe3          	bltu	ra,a3,8001db4 <main+0x1bd8>
 8001082:	01859713          	slli	a4,a1,0x18
 8001086:	41875793          	srai	a5,a4,0x18
 800108a:	8191                	srli	a1,a1,0x4
 800108c:	00458713          	addi	a4,a1,4
 8001090:	5207c9e3          	bltz	a5,8001dc2 <main+0x1be6>
 8001094:	00761593          	slli	a1,a2,0x7
 8001098:	95fa                	add	a1,a1,t5
 800109a:	02768633          	mul	a2,a3,t2
 800109e:	03d50533          	mul	a0,a0,t4
 80010a2:	9572                	add	a0,a0,t3
 80010a4:	9532                	add	a0,a0,a2
 80010a6:	00171613          	slli	a2,a4,0x1
 80010aa:	9532                	add	a0,a0,a2
 80010ac:	00051503          	lh	a0,0(a0)
 80010b0:	20a49603          	lh	a2,522(s1)
 80010b4:	9596                	add	a1,a1,t0
 80010b6:	00858693          	addi	a3,a1,8
 80010ba:	0085d583          	lhu	a1,8(a1)
 80010be:	02a60533          	mul	a0,a2,a0
 80010c2:	41f55613          	srai	a2,a0,0x1f
 80010c6:	8259                	srli	a2,a2,0x16
 80010c8:	9532                	add	a0,a0,a2
 80010ca:	8129                	srli	a0,a0,0xa
 80010cc:	952e                	add	a0,a0,a1
 80010ce:	0419                	addi	s0,s0,6
 80010d0:	00a69023          	sh	a0,0(a3)
 80010d4:	4aa00793          	li	a5,1194
 80010d8:	f8f412e3          	bne	s0,a5,800105c <main+0xe80>
 80010dc:	4401                	li	s0,0
 80010de:	019404b3          	add	s1,s0,s9
 80010e2:	20e4c603          	lbu	a2,526(s1)
 80010e6:	4ccfe0e3          	bltu	t6,a2,8001da6 <main+0x1bca>
 80010ea:	008c8533          	add	a0,s9,s0
 80010ee:	20d54503          	lbu	a0,525(a0)
 80010f2:	44a9ece3          	bltu	s3,a0,8001d4a <main+0x1b6e>
 80010f6:	20c4c583          	lbu	a1,524(s1)
 80010fa:	00f5f693          	andi	a3,a1,15
 80010fe:	96c6                	add	a3,a3,a7
 8001100:	4ad0eae3          	bltu	ra,a3,8001db4 <main+0x1bd8>
 8001104:	0045d713          	srli	a4,a1,0x4
 8001108:	0715                	addi	a4,a4,5
 800110a:	4ab86ce3          	bltu	a6,a1,8001dc2 <main+0x1be6>
 800110e:	00761593          	slli	a1,a2,0x7
 8001112:	95fa                	add	a1,a1,t5
 8001114:	02768633          	mul	a2,a3,t2
 8001118:	03d50533          	mul	a0,a0,t4
 800111c:	9572                	add	a0,a0,t3
 800111e:	9532                	add	a0,a0,a2
 8001120:	00171613          	slli	a2,a4,0x1
 8001124:	9532                	add	a0,a0,a2
 8001126:	00051503          	lh	a0,0(a0)
 800112a:	20a49603          	lh	a2,522(s1)
 800112e:	9596                	add	a1,a1,t0
 8001130:	00a58693          	addi	a3,a1,10
 8001134:	00a5d583          	lhu	a1,10(a1)
 8001138:	02a60533          	mul	a0,a2,a0
 800113c:	41f55613          	srai	a2,a0,0x1f
 8001140:	8259                	srli	a2,a2,0x16
 8001142:	9532                	add	a0,a0,a2
 8001144:	8129                	srli	a0,a0,0xa
 8001146:	952e                	add	a0,a0,a1
 8001148:	0419                	addi	s0,s0,6
 800114a:	00a69023          	sh	a0,0(a3)
 800114e:	f8f418e3          	bne	s0,a5,80010de <main+0xf02>
 8001152:	4401                	li	s0,0
 8001154:	05f00813          	li	a6,95
 8001158:	019404b3          	add	s1,s0,s9
 800115c:	20e4c603          	lbu	a2,526(s1)
 8001160:	44cfe3e3          	bltu	t6,a2,8001da6 <main+0x1bca>
 8001164:	008c8533          	add	a0,s9,s0
 8001168:	20d54503          	lbu	a0,525(a0)
 800116c:	3ca9efe3          	bltu	s3,a0,8001d4a <main+0x1b6e>
 8001170:	20c4c583          	lbu	a1,524(s1)
 8001174:	00f5f693          	andi	a3,a1,15
 8001178:	96c6                	add	a3,a3,a7
 800117a:	42d0ede3          	bltu	ra,a3,8001db4 <main+0x1bd8>
 800117e:	0045d713          	srli	a4,a1,0x4
 8001182:	0719                	addi	a4,a4,6
 8001184:	42b86fe3          	bltu	a6,a1,8001dc2 <main+0x1be6>
 8001188:	00761593          	slli	a1,a2,0x7
 800118c:	95fa                	add	a1,a1,t5
 800118e:	02768633          	mul	a2,a3,t2
 8001192:	03d50533          	mul	a0,a0,t4
 8001196:	9572                	add	a0,a0,t3
 8001198:	9532                	add	a0,a0,a2
 800119a:	00171613          	slli	a2,a4,0x1
 800119e:	9532                	add	a0,a0,a2
 80011a0:	00051503          	lh	a0,0(a0)
 80011a4:	20a49603          	lh	a2,522(s1)
 80011a8:	9596                	add	a1,a1,t0
 80011aa:	00c58693          	addi	a3,a1,12
 80011ae:	00c5d583          	lhu	a1,12(a1)
 80011b2:	02a60533          	mul	a0,a2,a0
 80011b6:	41f55613          	srai	a2,a0,0x1f
 80011ba:	8259                	srli	a2,a2,0x16
 80011bc:	9532                	add	a0,a0,a2
 80011be:	8129                	srli	a0,a0,0xa
 80011c0:	952e                	add	a0,a0,a1
 80011c2:	0419                	addi	s0,s0,6
 80011c4:	00a69023          	sh	a0,0(a3)
 80011c8:	f8f418e3          	bne	s0,a5,8001158 <main+0xf7c>
 80011cc:	4401                	li	s0,0
 80011ce:	04f00813          	li	a6,79
 80011d2:	019404b3          	add	s1,s0,s9
 80011d6:	20e4c603          	lbu	a2,526(s1)
 80011da:	3ccfe6e3          	bltu	t6,a2,8001da6 <main+0x1bca>
 80011de:	008c8533          	add	a0,s9,s0
 80011e2:	20d54503          	lbu	a0,525(a0)
 80011e6:	36a9e2e3          	bltu	s3,a0,8001d4a <main+0x1b6e>
 80011ea:	20c4c583          	lbu	a1,524(s1)
 80011ee:	00f5f693          	andi	a3,a1,15
 80011f2:	96c6                	add	a3,a3,a7
 80011f4:	3cd0e0e3          	bltu	ra,a3,8001db4 <main+0x1bd8>
 80011f8:	0045d713          	srli	a4,a1,0x4
 80011fc:	071d                	addi	a4,a4,7
 80011fe:	3cb862e3          	bltu	a6,a1,8001dc2 <main+0x1be6>
 8001202:	00761593          	slli	a1,a2,0x7
 8001206:	95fa                	add	a1,a1,t5
 8001208:	02768633          	mul	a2,a3,t2
 800120c:	03d50533          	mul	a0,a0,t4
 8001210:	9572                	add	a0,a0,t3
 8001212:	9532                	add	a0,a0,a2
 8001214:	00171613          	slli	a2,a4,0x1
 8001218:	9532                	add	a0,a0,a2
 800121a:	00051503          	lh	a0,0(a0)
 800121e:	20a49603          	lh	a2,522(s1)
 8001222:	9596                	add	a1,a1,t0
 8001224:	00e58693          	addi	a3,a1,14
 8001228:	00e5d583          	lhu	a1,14(a1)
 800122c:	02a60533          	mul	a0,a2,a0
 8001230:	41f55613          	srai	a2,a0,0x1f
 8001234:	8259                	srli	a2,a2,0x16
 8001236:	9532                	add	a0,a0,a2
 8001238:	8129                	srli	a0,a0,0xa
 800123a:	952e                	add	a0,a0,a1
 800123c:	0419                	addi	s0,s0,6
 800123e:	00a69023          	sh	a0,0(a3)
 8001242:	f8f418e3          	bne	s0,a5,80011d2 <main+0xff6>
 8001246:	5582                	lw	a1,32(sp)
 8001248:	88ae                	mv	a7,a1
 800124a:	4521                	li	a0,8
 800124c:	c0a59de3          	bne	a1,a0,8000e66 <main+0xc8a>
 8001250:	6511                	lui	a0,0x4
 8001252:	26450513          	addi	a0,a0,612 # 4264 <_hart_stack_size+0x3a64>
 8001256:	950a                	add	a0,a0,sp
 8001258:	842a                	mv	s0,a0
 800125a:	8522                	mv	a0,s0
 800125c:	85fa                	mv	a1,t5
 800125e:	4672                	lw	a2,28(sp)
 8001260:	00001097          	auipc	ra,0x1
 8001264:	fc4080e7          	jalr	-60(ra) # 8002224 <memcpy>
 8001268:	85a2                	mv	a1,s0
 800126a:	4481                	li	s1,0
 800126c:	4781                	li	a5,0
 800126e:	4501                	li	a0,0
 8001270:	8622                	mv	a2,s0
 8001272:	42b2                	lw	t0,12(sp)
 8001274:	577d                	li	a4,-1
 8001276:	cd09                	beqz	a0,8001290 <main+0x10b4>
 8001278:	86aa                	mv	a3,a0
 800127a:	00a78b63          	beq	a5,a0,8001290 <main+0x10b4>
 800127e:	00069403          	lh	s0,0(a3)
 8001282:	00268513          	addi	a0,a3,2
 8001286:	fe8748e3          	blt	a4,s0,8001276 <main+0x109a>
 800128a:	00069023          	sh	zero,0(a3)
 800128e:	b7e5                	j	8001276 <main+0x109a>
 8001290:	00f03533          	snez	a0,a5
 8001294:	0117c6b3          	xor	a3,a5,a7
 8001298:	00d036b3          	snez	a3,a3
 800129c:	8d75                	and	a0,a0,a3
 800129e:	e505                	bnez	a0,80012c6 <main+0x10ea>
 80012a0:	00903533          	snez	a0,s1
 80012a4:	0104c6b3          	xor	a3,s1,a6
 80012a8:	00d036b3          	snez	a3,a3
 80012ac:	8d75                	and	a0,a0,a3
 80012ae:	ed19                	bnez	a0,80012cc <main+0x10f0>
 80012b0:	02560b63          	beq	a2,t0,80012e6 <main+0x110a>
 80012b4:	84b2                	mv	s1,a2
 80012b6:	40060513          	addi	a0,a2,1024
 80012ba:	40050613          	addi	a2,a0,1024
 80012be:	d8ed                	beqz	s1,80012b0 <main+0x10d4>
 80012c0:	86b2                	mv	a3,a2
 80012c2:	e881                	bnez	s1,80012d2 <main+0x10f6>
 80012c4:	a00d                	j	80012e6 <main+0x110a>
 80012c6:	86b2                	mv	a3,a2
 80012c8:	eb99                	bnez	a5,80012de <main+0x1102>
 80012ca:	a831                	j	80012e6 <main+0x110a>
 80012cc:	86b2                	mv	a3,a2
 80012ce:	8642                	mv	a2,a6
 80012d0:	c899                	beqz	s1,80012e6 <main+0x110a>
 80012d2:	08048893          	addi	a7,s1,128
 80012d6:	87a6                	mv	a5,s1
 80012d8:	84c6                	mv	s1,a7
 80012da:	8832                	mv	a6,a2
 80012dc:	c789                	beqz	a5,80012e6 <main+0x110a>
 80012de:	853e                	mv	a0,a5
 80012e0:	07c1                	addi	a5,a5,16
 80012e2:	8636                	mv	a2,a3
 80012e4:	bf49                	j	8001276 <main+0x109a>
 80012e6:	651d                	lui	a0,0x7
 80012e8:	c2450513          	addi	a0,a0,-988 # 6c24 <_hart_stack_size+0x6424>
 80012ec:	950a                	add	a0,a0,sp
 80012ee:	852a                	mv	a0,a0
 80012f0:	4672                	lw	a2,28(sp)
 80012f2:	842e                	mv	s0,a1
 80012f4:	00001097          	auipc	ra,0x1
 80012f8:	f30080e7          	jalr	-208(ra) # 8002224 <memcpy>
 80012fc:	20000613          	li	a2,512
 8001300:	8522                	mv	a0,s0
 8001302:	4581                	li	a1,0
 8001304:	00001097          	auipc	ra,0x1
 8001308:	f36080e7          	jalr	-202(ra) # 800223a <memset>
 800130c:	4401                	li	s0,0
 800130e:	651d                	lui	a0,0x7
 8001310:	c6450513          	addi	a0,a0,-924 # 6c64 <_hart_stack_size+0x6464>
 8001314:	950a                	add	a0,a0,sp
 8001316:	85aa                	mv	a1,a0
 8001318:	6511                	lui	a0,0x4
 800131a:	27450513          	addi	a0,a0,628 # 4274 <_hart_stack_size+0x3a74>
 800131e:	950a                	add	a0,a0,sp
 8001320:	87aa                	mv	a5,a0
 8001322:	20000493          	li	s1,512
 8001326:	651d                	lui	a0,0x7
 8001328:	42450513          	addi	a0,a0,1060 # 7424 <_hart_stack_size+0x6c24>
 800132c:	950a                	add	a0,a0,sp
 800132e:	852a                	mv	a0,a0
 8001330:	a809                	j	8001342 <main+0x1166>
 8001332:	00e61723          	sh	a4,14(a2)
 8001336:	02040413          	addi	s0,s0,32
 800133a:	08058593          	addi	a1,a1,128
 800133e:	52940263          	beq	s0,s1,8001862 <main+0x1686>
 8001342:	fc059683          	lh	a3,-64(a1)
 8001346:	24d05863          	blez	a3,8001596 <main+0x13ba>
 800134a:	fc259603          	lh	a2,-62(a1)
 800134e:	01069713          	slli	a4,a3,0x10
 8001352:	8741                	srai	a4,a4,0x10
 8001354:	24e65963          	bge	a2,a4,80015a6 <main+0x13ca>
 8001358:	fd059603          	lh	a2,-48(a1)
 800135c:	01069713          	slli	a4,a3,0x10
 8001360:	8741                	srai	a4,a4,0x10
 8001362:	24e65a63          	bge	a2,a4,80015b6 <main+0x13da>
 8001366:	fd259603          	lh	a2,-46(a1)
 800136a:	01069713          	slli	a4,a3,0x10
 800136e:	8741                	srai	a4,a4,0x10
 8001370:	24e65b63          	bge	a2,a4,80015c6 <main+0x13ea>
 8001374:	fc459703          	lh	a4,-60(a1)
 8001378:	00878633          	add	a2,a5,s0
 800137c:	fed61823          	sh	a3,-16(a2)
 8001380:	24e05c63          	blez	a4,80015d8 <main+0x13fc>
 8001384:	fc659683          	lh	a3,-58(a1)
 8001388:	24e6dd63          	bge	a3,a4,80015e2 <main+0x1406>
 800138c:	fd459683          	lh	a3,-44(a1)
 8001390:	24e6de63          	bge	a3,a4,80015ec <main+0x1410>
 8001394:	fd659683          	lh	a3,-42(a1)
 8001398:	24e6df63          	bge	a3,a4,80015f6 <main+0x141a>
 800139c:	fc859683          	lh	a3,-56(a1)
 80013a0:	fee61923          	sh	a4,-14(a2)
 80013a4:	26d05063          	blez	a3,8001604 <main+0x1428>
 80013a8:	fca59703          	lh	a4,-54(a1)
 80013ac:	26d75163          	bge	a4,a3,800160e <main+0x1432>
 80013b0:	fd859703          	lh	a4,-40(a1)
 80013b4:	26d75263          	bge	a4,a3,8001618 <main+0x143c>
 80013b8:	fda59703          	lh	a4,-38(a1)
 80013bc:	26d75363          	bge	a4,a3,8001622 <main+0x1446>
 80013c0:	fcc59703          	lh	a4,-52(a1)
 80013c4:	fed61a23          	sh	a3,-12(a2)
 80013c8:	26e05463          	blez	a4,8001630 <main+0x1454>
 80013cc:	fce59683          	lh	a3,-50(a1)
 80013d0:	26e6d563          	bge	a3,a4,800163a <main+0x145e>
 80013d4:	fdc59683          	lh	a3,-36(a1)
 80013d8:	26e6d663          	bge	a3,a4,8001644 <main+0x1468>
 80013dc:	fde59683          	lh	a3,-34(a1)
 80013e0:	26e6d763          	bge	a3,a4,800164e <main+0x1472>
 80013e4:	fe059683          	lh	a3,-32(a1)
 80013e8:	fee61b23          	sh	a4,-10(a2)
 80013ec:	26d05863          	blez	a3,800165c <main+0x1480>
 80013f0:	fe259703          	lh	a4,-30(a1)
 80013f4:	26d75963          	bge	a4,a3,8001666 <main+0x148a>
 80013f8:	ff059703          	lh	a4,-16(a1)
 80013fc:	26d75a63          	bge	a4,a3,8001670 <main+0x1494>
 8001400:	ff259703          	lh	a4,-14(a1)
 8001404:	26d75b63          	bge	a4,a3,800167a <main+0x149e>
 8001408:	fe459703          	lh	a4,-28(a1)
 800140c:	fed61c23          	sh	a3,-8(a2)
 8001410:	26e05c63          	blez	a4,8001688 <main+0x14ac>
 8001414:	fe659683          	lh	a3,-26(a1)
 8001418:	26e6dd63          	bge	a3,a4,8001692 <main+0x14b6>
 800141c:	ff459683          	lh	a3,-12(a1)
 8001420:	26e6de63          	bge	a3,a4,800169c <main+0x14c0>
 8001424:	ff659683          	lh	a3,-10(a1)
 8001428:	26e6df63          	bge	a3,a4,80016a6 <main+0x14ca>
 800142c:	fe859683          	lh	a3,-24(a1)
 8001430:	fee61d23          	sh	a4,-6(a2)
 8001434:	28d05063          	blez	a3,80016b4 <main+0x14d8>
 8001438:	fea59703          	lh	a4,-22(a1)
 800143c:	28d75163          	bge	a4,a3,80016be <main+0x14e2>
 8001440:	ff859703          	lh	a4,-8(a1)
 8001444:	28d75263          	bge	a4,a3,80016c8 <main+0x14ec>
 8001448:	ffa59703          	lh	a4,-6(a1)
 800144c:	28d75363          	bge	a4,a3,80016d2 <main+0x14f6>
 8001450:	fec59703          	lh	a4,-20(a1)
 8001454:	fed61e23          	sh	a3,-4(a2)
 8001458:	28e05463          	blez	a4,80016e0 <main+0x1504>
 800145c:	fee59683          	lh	a3,-18(a1)
 8001460:	28e6d563          	bge	a3,a4,80016ea <main+0x150e>
 8001464:	ffc59683          	lh	a3,-4(a1)
 8001468:	28e6d663          	bge	a3,a4,80016f4 <main+0x1518>
 800146c:	ffe59683          	lh	a3,-2(a1)
 8001470:	28e6d763          	bge	a3,a4,80016fe <main+0x1522>
 8001474:	00059683          	lh	a3,0(a1)
 8001478:	fee61f23          	sh	a4,-2(a2)
 800147c:	28d05863          	blez	a3,800170c <main+0x1530>
 8001480:	00259703          	lh	a4,2(a1)
 8001484:	28d75963          	bge	a4,a3,8001716 <main+0x153a>
 8001488:	01059703          	lh	a4,16(a1)
 800148c:	28d75a63          	bge	a4,a3,8001720 <main+0x1544>
 8001490:	01259703          	lh	a4,18(a1)
 8001494:	28d75b63          	bge	a4,a3,800172a <main+0x154e>
 8001498:	00459703          	lh	a4,4(a1)
 800149c:	00d61023          	sh	a3,0(a2)
 80014a0:	28e05c63          	blez	a4,8001738 <main+0x155c>
 80014a4:	00659683          	lh	a3,6(a1)
 80014a8:	28e6dd63          	bge	a3,a4,8001742 <main+0x1566>
 80014ac:	01459683          	lh	a3,20(a1)
 80014b0:	28e6de63          	bge	a3,a4,800174c <main+0x1570>
 80014b4:	01659683          	lh	a3,22(a1)
 80014b8:	28e6df63          	bge	a3,a4,8001756 <main+0x157a>
 80014bc:	00859683          	lh	a3,8(a1)
 80014c0:	00e61123          	sh	a4,2(a2)
 80014c4:	2ad05063          	blez	a3,8001764 <main+0x1588>
 80014c8:	00a59703          	lh	a4,10(a1)
 80014cc:	2ad75163          	bge	a4,a3,800176e <main+0x1592>
 80014d0:	01859703          	lh	a4,24(a1)
 80014d4:	2ad75263          	bge	a4,a3,8001778 <main+0x159c>
 80014d8:	01a59703          	lh	a4,26(a1)
 80014dc:	2ad75363          	bge	a4,a3,8001782 <main+0x15a6>
 80014e0:	00c59703          	lh	a4,12(a1)
 80014e4:	00d61223          	sh	a3,4(a2)
 80014e8:	2ae05463          	blez	a4,8001790 <main+0x15b4>
 80014ec:	00e59683          	lh	a3,14(a1)
 80014f0:	2ae6d563          	bge	a3,a4,800179a <main+0x15be>
 80014f4:	01c59683          	lh	a3,28(a1)
 80014f8:	2ae6d663          	bge	a3,a4,80017a4 <main+0x15c8>
 80014fc:	01e59683          	lh	a3,30(a1)
 8001500:	2ae6d763          	bge	a3,a4,80017ae <main+0x15d2>
 8001504:	02059683          	lh	a3,32(a1)
 8001508:	00e61323          	sh	a4,6(a2)
 800150c:	2ad05863          	blez	a3,80017bc <main+0x15e0>
 8001510:	02259703          	lh	a4,34(a1)
 8001514:	2ad75963          	bge	a4,a3,80017c6 <main+0x15ea>
 8001518:	03059703          	lh	a4,48(a1)
 800151c:	2ad75a63          	bge	a4,a3,80017d0 <main+0x15f4>
 8001520:	03259703          	lh	a4,50(a1)
 8001524:	2ad75b63          	bge	a4,a3,80017da <main+0x15fe>
 8001528:	02459703          	lh	a4,36(a1)
 800152c:	00d61423          	sh	a3,8(a2)
 8001530:	2ae05c63          	blez	a4,80017e8 <main+0x160c>
 8001534:	02659683          	lh	a3,38(a1)
 8001538:	2ae6dd63          	bge	a3,a4,80017f2 <main+0x1616>
 800153c:	03459683          	lh	a3,52(a1)
 8001540:	2ae6de63          	bge	a3,a4,80017fc <main+0x1620>
 8001544:	03659683          	lh	a3,54(a1)
 8001548:	2ae6df63          	bge	a3,a4,8001806 <main+0x162a>
 800154c:	02859683          	lh	a3,40(a1)
 8001550:	00e61523          	sh	a4,10(a2)
 8001554:	2cd05063          	blez	a3,8001814 <main+0x1638>
 8001558:	02a59703          	lh	a4,42(a1)
 800155c:	2cd75163          	bge	a4,a3,800181e <main+0x1642>
 8001560:	03859703          	lh	a4,56(a1)
 8001564:	2cd75263          	bge	a4,a3,8001828 <main+0x164c>
 8001568:	03a59703          	lh	a4,58(a1)
 800156c:	2cd75363          	bge	a4,a3,8001832 <main+0x1656>
 8001570:	02c59703          	lh	a4,44(a1)
 8001574:	00d61623          	sh	a3,12(a2)
 8001578:	2ce05463          	blez	a4,8001840 <main+0x1664>
 800157c:	02e59683          	lh	a3,46(a1)
 8001580:	2ce6d563          	bge	a3,a4,800184a <main+0x166e>
 8001584:	03c59683          	lh	a3,60(a1)
 8001588:	2ce6d663          	bge	a3,a4,8001854 <main+0x1678>
 800158c:	03e59683          	lh	a3,62(a1)
 8001590:	dae6c1e3          	blt	a3,a4,8001332 <main+0x1156>
 8001594:	a4e9                	j	800185e <main+0x1682>
 8001596:	4681                	li	a3,0
 8001598:	fc259603          	lh	a2,-62(a1)
 800159c:	01069713          	slli	a4,a3,0x10
 80015a0:	8741                	srai	a4,a4,0x10
 80015a2:	dae64be3          	blt	a2,a4,8001358 <main+0x117c>
 80015a6:	86b2                	mv	a3,a2
 80015a8:	fd059603          	lh	a2,-48(a1)
 80015ac:	01069713          	slli	a4,a3,0x10
 80015b0:	8741                	srai	a4,a4,0x10
 80015b2:	dae64ae3          	blt	a2,a4,8001366 <main+0x118a>
 80015b6:	86b2                	mv	a3,a2
 80015b8:	fd259603          	lh	a2,-46(a1)
 80015bc:	01069713          	slli	a4,a3,0x10
 80015c0:	8741                	srai	a4,a4,0x10
 80015c2:	dae649e3          	blt	a2,a4,8001374 <main+0x1198>
 80015c6:	86b2                	mv	a3,a2
 80015c8:	fc459703          	lh	a4,-60(a1)
 80015cc:	00878633          	add	a2,a5,s0
 80015d0:	fed61823          	sh	a3,-16(a2)
 80015d4:	dae048e3          	bgtz	a4,8001384 <main+0x11a8>
 80015d8:	4701                	li	a4,0
 80015da:	fc659683          	lh	a3,-58(a1)
 80015de:	dae6c7e3          	blt	a3,a4,800138c <main+0x11b0>
 80015e2:	8736                	mv	a4,a3
 80015e4:	fd459683          	lh	a3,-44(a1)
 80015e8:	dae6c6e3          	blt	a3,a4,8001394 <main+0x11b8>
 80015ec:	8736                	mv	a4,a3
 80015ee:	fd659683          	lh	a3,-42(a1)
 80015f2:	dae6c5e3          	blt	a3,a4,800139c <main+0x11c0>
 80015f6:	8736                	mv	a4,a3
 80015f8:	fc859683          	lh	a3,-56(a1)
 80015fc:	fee61923          	sh	a4,-14(a2)
 8001600:	dad044e3          	bgtz	a3,80013a8 <main+0x11cc>
 8001604:	4681                	li	a3,0
 8001606:	fca59703          	lh	a4,-54(a1)
 800160a:	dad743e3          	blt	a4,a3,80013b0 <main+0x11d4>
 800160e:	86ba                	mv	a3,a4
 8001610:	fd859703          	lh	a4,-40(a1)
 8001614:	dad742e3          	blt	a4,a3,80013b8 <main+0x11dc>
 8001618:	86ba                	mv	a3,a4
 800161a:	fda59703          	lh	a4,-38(a1)
 800161e:	dad741e3          	blt	a4,a3,80013c0 <main+0x11e4>
 8001622:	86ba                	mv	a3,a4
 8001624:	fcc59703          	lh	a4,-52(a1)
 8001628:	fed61a23          	sh	a3,-12(a2)
 800162c:	dae040e3          	bgtz	a4,80013cc <main+0x11f0>
 8001630:	4701                	li	a4,0
 8001632:	fce59683          	lh	a3,-50(a1)
 8001636:	d8e6cfe3          	blt	a3,a4,80013d4 <main+0x11f8>
 800163a:	8736                	mv	a4,a3
 800163c:	fdc59683          	lh	a3,-36(a1)
 8001640:	d8e6cee3          	blt	a3,a4,80013dc <main+0x1200>
 8001644:	8736                	mv	a4,a3
 8001646:	fde59683          	lh	a3,-34(a1)
 800164a:	d8e6cde3          	blt	a3,a4,80013e4 <main+0x1208>
 800164e:	8736                	mv	a4,a3
 8001650:	fe059683          	lh	a3,-32(a1)
 8001654:	fee61b23          	sh	a4,-10(a2)
 8001658:	d8d04ce3          	bgtz	a3,80013f0 <main+0x1214>
 800165c:	4681                	li	a3,0
 800165e:	fe259703          	lh	a4,-30(a1)
 8001662:	d8d74be3          	blt	a4,a3,80013f8 <main+0x121c>
 8001666:	86ba                	mv	a3,a4
 8001668:	ff059703          	lh	a4,-16(a1)
 800166c:	d8d74ae3          	blt	a4,a3,8001400 <main+0x1224>
 8001670:	86ba                	mv	a3,a4
 8001672:	ff259703          	lh	a4,-14(a1)
 8001676:	d8d749e3          	blt	a4,a3,8001408 <main+0x122c>
 800167a:	86ba                	mv	a3,a4
 800167c:	fe459703          	lh	a4,-28(a1)
 8001680:	fed61c23          	sh	a3,-8(a2)
 8001684:	d8e048e3          	bgtz	a4,8001414 <main+0x1238>
 8001688:	4701                	li	a4,0
 800168a:	fe659683          	lh	a3,-26(a1)
 800168e:	d8e6c7e3          	blt	a3,a4,800141c <main+0x1240>
 8001692:	8736                	mv	a4,a3
 8001694:	ff459683          	lh	a3,-12(a1)
 8001698:	d8e6c6e3          	blt	a3,a4,8001424 <main+0x1248>
 800169c:	8736                	mv	a4,a3
 800169e:	ff659683          	lh	a3,-10(a1)
 80016a2:	d8e6c5e3          	blt	a3,a4,800142c <main+0x1250>
 80016a6:	8736                	mv	a4,a3
 80016a8:	fe859683          	lh	a3,-24(a1)
 80016ac:	fee61d23          	sh	a4,-6(a2)
 80016b0:	d8d044e3          	bgtz	a3,8001438 <main+0x125c>
 80016b4:	4681                	li	a3,0
 80016b6:	fea59703          	lh	a4,-22(a1)
 80016ba:	d8d743e3          	blt	a4,a3,8001440 <main+0x1264>
 80016be:	86ba                	mv	a3,a4
 80016c0:	ff859703          	lh	a4,-8(a1)
 80016c4:	d8d742e3          	blt	a4,a3,8001448 <main+0x126c>
 80016c8:	86ba                	mv	a3,a4
 80016ca:	ffa59703          	lh	a4,-6(a1)
 80016ce:	d8d741e3          	blt	a4,a3,8001450 <main+0x1274>
 80016d2:	86ba                	mv	a3,a4
 80016d4:	fec59703          	lh	a4,-20(a1)
 80016d8:	fed61e23          	sh	a3,-4(a2)
 80016dc:	d8e040e3          	bgtz	a4,800145c <main+0x1280>
 80016e0:	4701                	li	a4,0
 80016e2:	fee59683          	lh	a3,-18(a1)
 80016e6:	d6e6cfe3          	blt	a3,a4,8001464 <main+0x1288>
 80016ea:	8736                	mv	a4,a3
 80016ec:	ffc59683          	lh	a3,-4(a1)
 80016f0:	d6e6cee3          	blt	a3,a4,800146c <main+0x1290>
 80016f4:	8736                	mv	a4,a3
 80016f6:	ffe59683          	lh	a3,-2(a1)
 80016fa:	d6e6cde3          	blt	a3,a4,8001474 <main+0x1298>
 80016fe:	8736                	mv	a4,a3
 8001700:	00059683          	lh	a3,0(a1)
 8001704:	fee61f23          	sh	a4,-2(a2)
 8001708:	d6d04ce3          	bgtz	a3,8001480 <main+0x12a4>
 800170c:	4681                	li	a3,0
 800170e:	00259703          	lh	a4,2(a1)
 8001712:	d6d74be3          	blt	a4,a3,8001488 <main+0x12ac>
 8001716:	86ba                	mv	a3,a4
 8001718:	01059703          	lh	a4,16(a1)
 800171c:	d6d74ae3          	blt	a4,a3,8001490 <main+0x12b4>
 8001720:	86ba                	mv	a3,a4
 8001722:	01259703          	lh	a4,18(a1)
 8001726:	d6d749e3          	blt	a4,a3,8001498 <main+0x12bc>
 800172a:	86ba                	mv	a3,a4
 800172c:	00459703          	lh	a4,4(a1)
 8001730:	00d61023          	sh	a3,0(a2)
 8001734:	d6e048e3          	bgtz	a4,80014a4 <main+0x12c8>
 8001738:	4701                	li	a4,0
 800173a:	00659683          	lh	a3,6(a1)
 800173e:	d6e6c7e3          	blt	a3,a4,80014ac <main+0x12d0>
 8001742:	8736                	mv	a4,a3
 8001744:	01459683          	lh	a3,20(a1)
 8001748:	d6e6c6e3          	blt	a3,a4,80014b4 <main+0x12d8>
 800174c:	8736                	mv	a4,a3
 800174e:	01659683          	lh	a3,22(a1)
 8001752:	d6e6c5e3          	blt	a3,a4,80014bc <main+0x12e0>
 8001756:	8736                	mv	a4,a3
 8001758:	00859683          	lh	a3,8(a1)
 800175c:	00e61123          	sh	a4,2(a2)
 8001760:	d6d044e3          	bgtz	a3,80014c8 <main+0x12ec>
 8001764:	4681                	li	a3,0
 8001766:	00a59703          	lh	a4,10(a1)
 800176a:	d6d743e3          	blt	a4,a3,80014d0 <main+0x12f4>
 800176e:	86ba                	mv	a3,a4
 8001770:	01859703          	lh	a4,24(a1)
 8001774:	d6d742e3          	blt	a4,a3,80014d8 <main+0x12fc>
 8001778:	86ba                	mv	a3,a4
 800177a:	01a59703          	lh	a4,26(a1)
 800177e:	d6d741e3          	blt	a4,a3,80014e0 <main+0x1304>
 8001782:	86ba                	mv	a3,a4
 8001784:	00c59703          	lh	a4,12(a1)
 8001788:	00d61223          	sh	a3,4(a2)
 800178c:	d6e040e3          	bgtz	a4,80014ec <main+0x1310>
 8001790:	4701                	li	a4,0
 8001792:	00e59683          	lh	a3,14(a1)
 8001796:	d4e6cfe3          	blt	a3,a4,80014f4 <main+0x1318>
 800179a:	8736                	mv	a4,a3
 800179c:	01c59683          	lh	a3,28(a1)
 80017a0:	d4e6cee3          	blt	a3,a4,80014fc <main+0x1320>
 80017a4:	8736                	mv	a4,a3
 80017a6:	01e59683          	lh	a3,30(a1)
 80017aa:	d4e6cde3          	blt	a3,a4,8001504 <main+0x1328>
 80017ae:	8736                	mv	a4,a3
 80017b0:	02059683          	lh	a3,32(a1)
 80017b4:	00e61323          	sh	a4,6(a2)
 80017b8:	d4d04ce3          	bgtz	a3,8001510 <main+0x1334>
 80017bc:	4681                	li	a3,0
 80017be:	02259703          	lh	a4,34(a1)
 80017c2:	d4d74be3          	blt	a4,a3,8001518 <main+0x133c>
 80017c6:	86ba                	mv	a3,a4
 80017c8:	03059703          	lh	a4,48(a1)
 80017cc:	d4d74ae3          	blt	a4,a3,8001520 <main+0x1344>
 80017d0:	86ba                	mv	a3,a4
 80017d2:	03259703          	lh	a4,50(a1)
 80017d6:	d4d749e3          	blt	a4,a3,8001528 <main+0x134c>
 80017da:	86ba                	mv	a3,a4
 80017dc:	02459703          	lh	a4,36(a1)
 80017e0:	00d61423          	sh	a3,8(a2)
 80017e4:	d4e048e3          	bgtz	a4,8001534 <main+0x1358>
 80017e8:	4701                	li	a4,0
 80017ea:	02659683          	lh	a3,38(a1)
 80017ee:	d4e6c7e3          	blt	a3,a4,800153c <main+0x1360>
 80017f2:	8736                	mv	a4,a3
 80017f4:	03459683          	lh	a3,52(a1)
 80017f8:	d4e6c6e3          	blt	a3,a4,8001544 <main+0x1368>
 80017fc:	8736                	mv	a4,a3
 80017fe:	03659683          	lh	a3,54(a1)
 8001802:	d4e6c5e3          	blt	a3,a4,800154c <main+0x1370>
 8001806:	8736                	mv	a4,a3
 8001808:	02859683          	lh	a3,40(a1)
 800180c:	00e61523          	sh	a4,10(a2)
 8001810:	d4d044e3          	bgtz	a3,8001558 <main+0x137c>
 8001814:	4681                	li	a3,0
 8001816:	02a59703          	lh	a4,42(a1)
 800181a:	d4d743e3          	blt	a4,a3,8001560 <main+0x1384>
 800181e:	86ba                	mv	a3,a4
 8001820:	03859703          	lh	a4,56(a1)
 8001824:	d4d742e3          	blt	a4,a3,8001568 <main+0x138c>
 8001828:	86ba                	mv	a3,a4
 800182a:	03a59703          	lh	a4,58(a1)
 800182e:	d4d741e3          	blt	a4,a3,8001570 <main+0x1394>
 8001832:	86ba                	mv	a3,a4
 8001834:	02c59703          	lh	a4,44(a1)
 8001838:	00d61623          	sh	a3,12(a2)
 800183c:	d4e040e3          	bgtz	a4,800157c <main+0x13a0>
 8001840:	4701                	li	a4,0
 8001842:	02e59683          	lh	a3,46(a1)
 8001846:	d2e6cfe3          	blt	a3,a4,8001584 <main+0x13a8>
 800184a:	8736                	mv	a4,a3
 800184c:	03c59683          	lh	a3,60(a1)
 8001850:	d2e6cee3          	blt	a3,a4,800158c <main+0x13b0>
 8001854:	8736                	mv	a4,a3
 8001856:	03e59683          	lh	a3,62(a1)
 800185a:	ace6cce3          	blt	a3,a4,8001332 <main+0x1156>
 800185e:	8736                	mv	a4,a3
 8001860:	bcc9                	j	8001332 <main+0x1156>
 8001862:	0f000613          	li	a2,240
 8001866:	4581                	li	a1,0
 8001868:	00001097          	auipc	ra,0x1
 800186c:	9d2080e7          	jalr	-1582(ra) # 800223a <memset>
 8001870:	651d                	lui	a0,0x7
 8001872:	42450513          	addi	a0,a0,1060 # 7424 <_hart_stack_size+0x6c24>
 8001876:	950a                	add	a0,a0,sp
 8001878:	85aa                	mv	a1,a0
 800187a:	4701                	li	a4,0
 800187c:	6511                	lui	a0,0x4
 800187e:	26450513          	addi	a0,a0,612 # 4264 <_hart_stack_size+0x3a64>
 8001882:	950a                	add	a0,a0,sp
 8001884:	88aa                	mv	a7,a0
 8001886:	483d                	li	a6,15
 8001888:	07700293          	li	t0,119
 800188c:	430d                	li	t1,3
 800188e:	03f00393          	li	t2,63
 8001892:	5c400e13          	li	t3,1476
 8001896:	019707b3          	add	a5,a4,s9
 800189a:	6b87c503          	lbu	a0,1720(a5)
 800189e:	52a2e963          	bltu	t0,a0,8001dd0 <main+0x1bf4>
 80018a2:	00ec8633          	add	a2,s9,a4
 80018a6:	6b764603          	lbu	a2,1719(a2)
 80018aa:	4ec86e63          	bltu	a6,a2,8001da6 <main+0x1bca>
 80018ae:	6b67c483          	lbu	s1,1718(a5)
 80018b2:	00f4f693          	andi	a3,s1,15
 80018b6:	52d36463          	bltu	t1,a3,8001dde <main+0x1c02>
 80018ba:	0044d413          	srli	s0,s1,0x4
 80018be:	5293e763          	bltu	t2,s1,8001dec <main+0x1c10>
 80018c2:	0616                	slli	a2,a2,0x5
 80018c4:	9646                	add	a2,a2,a7
 80018c6:	068e                	slli	a3,a3,0x3
 80018c8:	9636                	add	a2,a2,a3
 80018ca:	00141693          	slli	a3,s0,0x1
 80018ce:	9636                	add	a2,a2,a3
 80018d0:	00061603          	lh	a2,0(a2)
 80018d4:	6b479683          	lh	a3,1716(a5)
 80018d8:	0506                	slli	a0,a0,0x1
 80018da:	952e                	add	a0,a0,a1
 80018dc:	00055783          	lhu	a5,0(a0)
 80018e0:	02c68633          	mul	a2,a3,a2
 80018e4:	41f65693          	srai	a3,a2,0x1f
 80018e8:	82d9                	srli	a3,a3,0x16
 80018ea:	9636                	add	a2,a2,a3
 80018ec:	8229                	srli	a2,a2,0xa
 80018ee:	963e                	add	a2,a2,a5
 80018f0:	0719                	addi	a4,a4,6
 80018f2:	00c51023          	sh	a2,0(a0)
 80018f6:	fbc710e3          	bne	a4,t3,8001896 <main+0x16ba>
 80018fa:	0f000613          	li	a2,240
 80018fe:	651d                	lui	a0,0x7
 8001900:	60450513          	addi	a0,a0,1540 # 7604 <_hart_stack_size+0x6e04>
 8001904:	950a                	add	a0,a0,sp
 8001906:	842a                	mv	s0,a0
 8001908:	8522                	mv	a0,s0
 800190a:	00001097          	auipc	ra,0x1
 800190e:	91a080e7          	jalr	-1766(ra) # 8002224 <memcpy>
 8001912:	85a2                	mv	a1,s0
 8001914:	4481                	li	s1,0
 8001916:	4501                	li	a0,0
 8001918:	4681                	li	a3,0
 800191a:	8722                	mv	a4,s0
 800191c:	661d                	lui	a2,0x7
 800191e:	6f460613          	addi	a2,a2,1780 # 76f4 <_hart_stack_size+0x6ef4>
 8001922:	960a                	add	a2,a2,sp
 8001924:	82b2                	mv	t0,a2
 8001926:	567d                	li	a2,-1
 8001928:	ce89                	beqz	a3,8001942 <main+0x1766>
 800192a:	87b6                	mv	a5,a3
 800192c:	00d50b63          	beq	a0,a3,8001942 <main+0x1766>
 8001930:	00079403          	lh	s0,0(a5)
 8001934:	00278693          	addi	a3,a5,2
 8001938:	fe8648e3          	blt	a2,s0,8001928 <main+0x174c>
 800193c:	00079023          	sh	zero,0(a5)
 8001940:	b7e5                	j	8001928 <main+0x174c>
 8001942:	00a036b3          	snez	a3,a0
 8001946:	011547b3          	xor	a5,a0,a7
 800194a:	00f037b3          	snez	a5,a5
 800194e:	8efd                	and	a3,a3,a5
 8001950:	e695                	bnez	a3,800197c <main+0x17a0>
 8001952:	00903533          	snez	a0,s1
 8001956:	0104c6b3          	xor	a3,s1,a6
 800195a:	00d036b3          	snez	a3,a3
 800195e:	8d75                	and	a0,a0,a3
 8001960:	e909                	bnez	a0,8001972 <main+0x1796>
 8001962:	02570163          	beq	a4,t0,8001984 <main+0x17a8>
 8001966:	84ba                	mv	s1,a4
 8001968:	0f070713          	addi	a4,a4,240
 800196c:	d8fd                	beqz	s1,8001962 <main+0x1786>
 800196e:	0f048813          	addi	a6,s1,240
 8001972:	c889                	beqz	s1,8001984 <main+0x17a8>
 8001974:	00248893          	addi	a7,s1,2
 8001978:	8526                	mv	a0,s1
 800197a:	84c6                	mv	s1,a7
 800197c:	c501                	beqz	a0,8001984 <main+0x17a8>
 800197e:	86aa                	mv	a3,a0
 8001980:	0509                	addi	a0,a0,2
 8001982:	b75d                	j	8001928 <main+0x174c>
 8001984:	0f000613          	li	a2,240
 8001988:	651d                	lui	a0,0x7
 800198a:	51450513          	addi	a0,a0,1300 # 7514 <_hart_stack_size+0x6d14>
 800198e:	950a                	add	a0,a0,sp
 8001990:	842a                	mv	s0,a0
 8001992:	8522                	mv	a0,s0
 8001994:	00001097          	auipc	ra,0x1
 8001998:	890080e7          	jalr	-1904(ra) # 8002224 <memcpy>
 800199c:	0f000613          	li	a2,240
 80019a0:	651d                	lui	a0,0x7
 80019a2:	60450513          	addi	a0,a0,1540 # 7604 <_hart_stack_size+0x6e04>
 80019a6:	950a                	add	a0,a0,sp
 80019a8:	852a                	mv	a0,a0
 80019aa:	85a2                	mv	a1,s0
 80019ac:	00001097          	auipc	ra,0x1
 80019b0:	878080e7          	jalr	-1928(ra) # 8002224 <memcpy>
 80019b4:	0a800613          	li	a2,168
 80019b8:	651d                	lui	a0,0x7
 80019ba:	6f450513          	addi	a0,a0,1780 # 76f4 <_hart_stack_size+0x6ef4>
 80019be:	950a                	add	a0,a0,sp
 80019c0:	842a                	mv	s0,a0
 80019c2:	8522                	mv	a0,s0
 80019c4:	4581                	li	a1,0
 80019c6:	00001097          	auipc	ra,0x1
 80019ca:	874080e7          	jalr	-1932(ra) # 800223a <memset>
 80019ce:	85a2                	mv	a1,s0
 80019d0:	651d                	lui	a0,0x7
 80019d2:	60450513          	addi	a0,a0,1540 # 7604 <_hart_stack_size+0x6e04>
 80019d6:	950a                	add	a0,a0,sp
 80019d8:	882a                	mv	a6,a0
 80019da:	2ac00413          	li	s0,684
 80019de:	63ec8513          	addi	a0,s9,1598
 80019e2:	63d50693          	addi	a3,a0,1597
 80019e6:	07700893          	li	a7,119
 80019ea:	05300493          	li	s1,83
 80019ee:	0006c503          	lbu	a0,0(a3)
 80019f2:	40a4e463          	bltu	s1,a0,8001dfa <main+0x1c1e>
 80019f6:	fff6c603          	lbu	a2,-1(a3)
 80019fa:	40c8e763          	bltu	a7,a2,8001e08 <main+0x1c2c>
 80019fe:	0606                	slli	a2,a2,0x1
 8001a00:	9642                	add	a2,a2,a6
 8001a02:	00061603          	lh	a2,0(a2)
 8001a06:	ffd69703          	lh	a4,-3(a3)
 8001a0a:	0506                	slli	a0,a0,0x1
 8001a0c:	952e                	add	a0,a0,a1
 8001a0e:	00051783          	lh	a5,0(a0)
 8001a12:	02c70633          	mul	a2,a4,a2
 8001a16:	41f65713          	srai	a4,a2,0x1f
 8001a1a:	8359                	srli	a4,a4,0x16
 8001a1c:	963a                	add	a2,a2,a4
 8001a1e:	8229                	srli	a2,a2,0xa
 8001a20:	963e                	add	a2,a2,a5
 8001a22:	00c51023          	sh	a2,0(a0)
 8001a26:	1471                	addi	s0,s0,-4
 8001a28:	0691                	addi	a3,a3,4
 8001a2a:	f071                	bnez	s0,80019ee <main+0x1812>
 8001a2c:	0a800613          	li	a2,168
 8001a30:	6521                	lui	a0,0x8
 8001a32:	84450513          	addi	a0,a0,-1980 # 7844 <_hart_stack_size+0x7044>
 8001a36:	950a                	add	a0,a0,sp
 8001a38:	842a                	mv	s0,a0
 8001a3a:	8522                	mv	a0,s0
 8001a3c:	00000097          	auipc	ra,0x0
 8001a40:	7e8080e7          	jalr	2024(ra) # 8002224 <memcpy>
 8001a44:	4501                	li	a0,0
 8001a46:	0a800693          	li	a3,168
 8001a4a:	659d                	lui	a1,0x7
 8001a4c:	79c58593          	addi	a1,a1,1948 # 779c <_hart_stack_size+0x6f9c>
 8001a50:	958a                	add	a1,a1,sp
 8001a52:	84ae                	mv	s1,a1
 8001a54:	577d                	li	a4,-1
 8001a56:	a011                	j	8001a5a <main+0x187e>
 8001a58:	0509                	addi	a0,a0,2
 8001a5a:	00d50b63          	beq	a0,a3,8001a70 <main+0x1894>
 8001a5e:	00a405b3          	add	a1,s0,a0
 8001a62:	00059603          	lh	a2,0(a1)
 8001a66:	fec749e3          	blt	a4,a2,8001a58 <main+0x187c>
 8001a6a:	00059023          	sh	zero,0(a1)
 8001a6e:	b7ed                	j	8001a58 <main+0x187c>
 8001a70:	0a800613          	li	a2,168
 8001a74:	8526                	mv	a0,s1
 8001a76:	85a2                	mv	a1,s0
 8001a78:	00000097          	auipc	ra,0x0
 8001a7c:	7ac080e7          	jalr	1964(ra) # 8002224 <memcpy>
 8001a80:	6521                	lui	a0,0x8
 8001a82:	85450513          	addi	a0,a0,-1964 # 7854 <_hart_stack_size+0x7054>
 8001a86:	950a                	add	a0,a0,sp
 8001a88:	00052023          	sw	zero,0(a0)
 8001a8c:	6521                	lui	a0,0x8
 8001a8e:	85050513          	addi	a0,a0,-1968 # 7850 <_hart_stack_size+0x7050>
 8001a92:	950a                	add	a0,a0,sp
 8001a94:	00052023          	sw	zero,0(a0)
 8001a98:	6521                	lui	a0,0x8
 8001a9a:	84c50513          	addi	a0,a0,-1972 # 784c <_hart_stack_size+0x704c>
 8001a9e:	950a                	add	a0,a0,sp
 8001aa0:	00052023          	sw	zero,0(a0)
 8001aa4:	6521                	lui	a0,0x8
 8001aa6:	84850513          	addi	a0,a0,-1976 # 7848 <_hart_stack_size+0x7048>
 8001aaa:	950a                	add	a0,a0,sp
 8001aac:	00052023          	sw	zero,0(a0)
 8001ab0:	6521                	lui	a0,0x8
 8001ab2:	84450513          	addi	a0,a0,-1980 # 7844 <_hart_stack_size+0x7044>
 8001ab6:	950a                	add	a0,a0,sp
 8001ab8:	00052023          	sw	zero,0(a0)
 8001abc:	17400513          	li	a0,372
 8001ac0:	794c8593          	addi	a1,s9,1940
 8001ac4:	79358593          	addi	a1,a1,1939
 8001ac8:	fff5c603          	lbu	a2,-1(a1)
 8001acc:	0005c683          	lbu	a3,0(a1)
 8001ad0:	0606                	slli	a2,a2,0x1
 8001ad2:	9626                	add	a2,a2,s1
 8001ad4:	00061603          	lh	a2,0(a2)
 8001ad8:	ffd59703          	lh	a4,-3(a1)
 8001adc:	0686                	slli	a3,a3,0x1
 8001ade:	96a2                	add	a3,a3,s0
 8001ae0:	00069783          	lh	a5,0(a3)
 8001ae4:	02c70633          	mul	a2,a4,a2
 8001ae8:	41f65713          	srai	a4,a2,0x1f
 8001aec:	8359                	srli	a4,a4,0x16
 8001aee:	963a                	add	a2,a2,a4
 8001af0:	8229                	srli	a2,a2,0xa
 8001af2:	963e                	add	a2,a2,a5
 8001af4:	00c69023          	sh	a2,0(a3)
 8001af8:	1571                	addi	a0,a0,-4
 8001afa:	0591                	addi	a1,a1,4
 8001afc:	f571                	bnez	a0,8001ac8 <main+0x18ec>
 8001afe:	6521                	lui	a0,0x8
 8001b00:	84450513          	addi	a0,a0,-1980 # 7844 <_hart_stack_size+0x7044>
 8001b04:	950a                	add	a0,a0,sp
 8001b06:	00051283          	lh	t0,0(a0)
 8001b0a:	6521                	lui	a0,0x8
 8001b0c:	84650513          	addi	a0,a0,-1978 # 7846 <_hart_stack_size+0x7046>
 8001b10:	950a                	add	a0,a0,sp
 8001b12:	00051e83          	lh	t4,0(a0)
 8001b16:	6521                	lui	a0,0x8
 8001b18:	84850513          	addi	a0,a0,-1976 # 7848 <_hart_stack_size+0x7048>
 8001b1c:	950a                	add	a0,a0,sp
 8001b1e:	00051603          	lh	a2,0(a0)
 8001b22:	6521                	lui	a0,0x8
 8001b24:	84a50513          	addi	a0,a0,-1974 # 784a <_hart_stack_size+0x704a>
 8001b28:	950a                	add	a0,a0,sp
 8001b2a:	00051503          	lh	a0,0(a0)
 8001b2e:	65a1                	lui	a1,0x8
 8001b30:	84c58593          	addi	a1,a1,-1972 # 784c <_hart_stack_size+0x704c>
 8001b34:	958a                	add	a1,a1,sp
 8001b36:	00059083          	lh	ra,0(a1)
 8001b3a:	65a1                	lui	a1,0x8
 8001b3c:	84e58593          	addi	a1,a1,-1970 # 784e <_hart_stack_size+0x704e>
 8001b40:	958a                	add	a1,a1,sp
 8001b42:	00059e03          	lh	t3,0(a1)
 8001b46:	65a1                	lui	a1,0x8
 8001b48:	85058593          	addi	a1,a1,-1968 # 7850 <_hart_stack_size+0x7050>
 8001b4c:	958a                	add	a1,a1,sp
 8001b4e:	00059383          	lh	t2,0(a1)
 8001b52:	65a1                	lui	a1,0x8
 8001b54:	85258593          	addi	a1,a1,-1966 # 7852 <_hart_stack_size+0x7052>
 8001b58:	958a                	add	a1,a1,sp
 8001b5a:	00059303          	lh	t1,0(a1)
 8001b5e:	65a1                	lui	a1,0x8
 8001b60:	85458593          	addi	a1,a1,-1964 # 7854 <_hart_stack_size+0x7054>
 8001b64:	958a                	add	a1,a1,sp
 8001b66:	00059883          	lh	a7,0(a1)
 8001b6a:	65a1                	lui	a1,0x8
 8001b6c:	85658593          	addi	a1,a1,-1962 # 7856 <_hart_stack_size+0x7056>
 8001b70:	958a                	add	a1,a1,sp
 8001b72:	00059583          	lh	a1,0(a1)
 8001b76:	d02e                	sw	a1,32(sp)
 8001b78:	85f6                	mv	a1,t4
 8001b7a:	0fd2d063          	bge	t0,t4,8001c5a <main+0x1a7e>
 8001b7e:	01059693          	slli	a3,a1,0x10
 8001b82:	4106df13          	srai	t5,a3,0x10
 8001b86:	86b2                	mv	a3,a2
 8001b88:	0ecf5163          	bge	t5,a2,8001c6a <main+0x1a8e>
 8001b8c:	01069593          	slli	a1,a3,0x10
 8001b90:	4105df93          	srai	t6,a1,0x10
 8001b94:	872a                	mv	a4,a0
 8001b96:	0eafd263          	bge	t6,a0,8001c7a <main+0x1a9e>
 8001b9a:	01071593          	slli	a1,a4,0x10
 8001b9e:	85c1                	srai	a1,a1,0x10
 8001ba0:	8786                	mv	a5,ra
 8001ba2:	0e15d363          	bge	a1,ra,8001c88 <main+0x1aac>
 8001ba6:	01079693          	slli	a3,a5,0x10
 8001baa:	86c1                	srai	a3,a3,0x10
 8001bac:	84f2                	mv	s1,t3
 8001bae:	0fc6d463          	bge	a3,t3,8001c96 <main+0x1aba>
 8001bb2:	01049713          	slli	a4,s1,0x10
 8001bb6:	8741                	srai	a4,a4,0x10
 8001bb8:	841e                	mv	s0,t2
 8001bba:	0e775563          	bge	a4,t2,8001ca4 <main+0x1ac8>
 8001bbe:	01041793          	slli	a5,s0,0x10
 8001bc2:	87c1                	srai	a5,a5,0x10
 8001bc4:	849a                	mv	s1,t1
 8001bc6:	0e67d663          	bge	a5,t1,8001cb2 <main+0x1ad6>
 8001bca:	01049413          	slli	s0,s1,0x10
 8001bce:	41045813          	srai	a6,s0,0x10
 8001bd2:	8446                	mv	s0,a7
 8001bd4:	0f185763          	bge	a6,a7,8001cc2 <main+0x1ae6>
 8001bd8:	4489                	li	s1,2
 8001bda:	0ecf5863          	bge	t5,a2,8001cca <main+0x1aee>
 8001bde:	460d                	li	a2,3
 8001be0:	0eafda63          	bge	t6,a0,8001cd4 <main+0x1af8>
 8001be4:	4511                	li	a0,4
 8001be6:	0e15db63          	bge	a1,ra,8001cdc <main+0x1b00>
 8001bea:	4595                	li	a1,5
 8001bec:	200004b7          	lui	s1,0x20000
 8001bf0:	0fc6dc63          	bge	a3,t3,8001ce8 <main+0x1b0c>
 8001bf4:	4519                	li	a0,6
 8001bf6:	0e775d63          	bge	a4,t2,8001cf0 <main+0x1b14>
 8001bfa:	01041613          	slli	a2,s0,0x10
 8001bfe:	459d                	li	a1,7
 8001c00:	0e67de63          	bge	a5,t1,8001cfc <main+0x1b20>
 8001c04:	41065513          	srai	a0,a2,0x10
 8001c08:	4621                	li	a2,8
 8001c0a:	0f185f63          	bge	a6,a7,8001d08 <main+0x1b2c>
 8001c0e:	4425                	li	s0,9
 8001c10:	5582                	lw	a1,32(sp)
 8001c12:	00b54363          	blt	a0,a1,8001c18 <main+0x1a3c>
 8001c16:	8432                	mv	s0,a2
 8001c18:	00000097          	auipc	ra,0x0
 8001c1c:	5f4080e7          	jalr	1524(ra) # 800220c <__read_mstatus>
 8001c20:	d02a                	sw	a0,32(sp)
 8001c22:	4521                	li	a0,8
 8001c24:	00000097          	auipc	ra,0x0
 8001c28:	5f4080e7          	jalr	1524(ra) # 8002218 <__clear_mstatus>
 8001c2c:	0004c503          	lbu	a0,0(s1) # 20000000 <_edata>
 8001c30:	c909                	beqz	a0,8001c42 <main+0x1a66>
 8001c32:	800da503          	lw	a0,-2048(s11)
 8001c36:	08057513          	andi	a0,a0,128
 8001c3a:	dd65                	beqz	a0,8001c32 <main+0x1a56>
 8001c3c:	4552                	lw	a0,20(sp)
 8001c3e:	00850023          	sb	s0,0(a0)
 8001c42:	5502                	lw	a0,32(sp)
 8001c44:	8921                	andi	a0,a0,8
 8001c46:	e119                	bnez	a0,8001c4c <main+0x1a70>
 8001c48:	b77fe06f          	j	80007be <main+0x5e2>
 8001c4c:	4521                	li	a0,8
 8001c4e:	00000097          	auipc	ra,0x0
 8001c52:	5c4080e7          	jalr	1476(ra) # 8002212 <__set_mstatus>
 8001c56:	b69fe06f          	j	80007be <main+0x5e2>
 8001c5a:	8596                	mv	a1,t0
 8001c5c:	01059693          	slli	a3,a1,0x10
 8001c60:	4106df13          	srai	t5,a3,0x10
 8001c64:	86b2                	mv	a3,a2
 8001c66:	f2cf43e3          	blt	t5,a2,8001b8c <main+0x19b0>
 8001c6a:	86ae                	mv	a3,a1
 8001c6c:	01069593          	slli	a1,a3,0x10
 8001c70:	4105df93          	srai	t6,a1,0x10
 8001c74:	872a                	mv	a4,a0
 8001c76:	f2afc2e3          	blt	t6,a0,8001b9a <main+0x19be>
 8001c7a:	8736                	mv	a4,a3
 8001c7c:	01071593          	slli	a1,a4,0x10
 8001c80:	85c1                	srai	a1,a1,0x10
 8001c82:	8786                	mv	a5,ra
 8001c84:	f215c1e3          	blt	a1,ra,8001ba6 <main+0x19ca>
 8001c88:	87ba                	mv	a5,a4
 8001c8a:	01079693          	slli	a3,a5,0x10
 8001c8e:	86c1                	srai	a3,a3,0x10
 8001c90:	84f2                	mv	s1,t3
 8001c92:	f3c6c0e3          	blt	a3,t3,8001bb2 <main+0x19d6>
 8001c96:	84be                	mv	s1,a5
 8001c98:	01049713          	slli	a4,s1,0x10
 8001c9c:	8741                	srai	a4,a4,0x10
 8001c9e:	841e                	mv	s0,t2
 8001ca0:	f0774fe3          	blt	a4,t2,8001bbe <main+0x19e2>
 8001ca4:	8426                	mv	s0,s1
 8001ca6:	01041793          	slli	a5,s0,0x10
 8001caa:	87c1                	srai	a5,a5,0x10
 8001cac:	849a                	mv	s1,t1
 8001cae:	f067cee3          	blt	a5,t1,8001bca <main+0x19ee>
 8001cb2:	84a2                	mv	s1,s0
 8001cb4:	01049413          	slli	s0,s1,0x10
 8001cb8:	41045813          	srai	a6,s0,0x10
 8001cbc:	8446                	mv	s0,a7
 8001cbe:	f1184de3          	blt	a6,a7,8001bd8 <main+0x19fc>
 8001cc2:	8426                	mv	s0,s1
 8001cc4:	4489                	li	s1,2
 8001cc6:	f0cf4ce3          	blt	t5,a2,8001bde <main+0x1a02>
 8001cca:	01d2a4b3          	slt	s1,t0,t4
 8001cce:	460d                	li	a2,3
 8001cd0:	f0afcae3          	blt	t6,a0,8001be4 <main+0x1a08>
 8001cd4:	8626                	mv	a2,s1
 8001cd6:	4511                	li	a0,4
 8001cd8:	f015c9e3          	blt	a1,ra,8001bea <main+0x1a0e>
 8001cdc:	8532                	mv	a0,a2
 8001cde:	4595                	li	a1,5
 8001ce0:	200004b7          	lui	s1,0x20000
 8001ce4:	f1c6c8e3          	blt	a3,t3,8001bf4 <main+0x1a18>
 8001ce8:	85aa                	mv	a1,a0
 8001cea:	4519                	li	a0,6
 8001cec:	f07747e3          	blt	a4,t2,8001bfa <main+0x1a1e>
 8001cf0:	852e                	mv	a0,a1
 8001cf2:	01041613          	slli	a2,s0,0x10
 8001cf6:	459d                	li	a1,7
 8001cf8:	f067c6e3          	blt	a5,t1,8001c04 <main+0x1a28>
 8001cfc:	85aa                	mv	a1,a0
 8001cfe:	41065513          	srai	a0,a2,0x10
 8001d02:	4621                	li	a2,8
 8001d04:	f11845e3          	blt	a6,a7,8001c0e <main+0x1a32>
 8001d08:	862e                	mv	a2,a1
 8001d0a:	4425                	li	s0,9
 8001d0c:	5582                	lw	a1,32(sp)
 8001d0e:	f0b554e3          	bge	a0,a1,8001c16 <main+0x1a3a>
 8001d12:	b719                	j	8001c18 <main+0x1a3c>
 8001d14:	4485                	li	s1,1
 8001d16:	009500a3          	sb	s1,1(a0)
 8001d1a:	00847513          	andi	a0,s0,8
 8001d1e:	e119                	bnez	a0,8001d24 <main+0x1b48>
 8001d20:	d2cfe06f          	j	800024c <main+0x70>
 8001d24:	4521                	li	a0,8
 8001d26:	00000097          	auipc	ra,0x0
 8001d2a:	4ec080e7          	jalr	1260(ra) # 8002212 <__set_mstatus>
 8001d2e:	c099                	beqz	s1,8001d34 <main+0x1b58>
 8001d30:	d22fe06f          	j	8000252 <main+0x76>
 8001d34:	08002537          	lui	a0,0x8002
 8001d38:	26050513          	addi	a0,a0,608 # 8002260 <.L__unnamed_2>
 8001d3c:	02b00593          	li	a1,43
 8001d40:	00000097          	auipc	ra,0x0
 8001d44:	100080e7          	jalr	256(ra) # 8001e40 <_ZN4core9panicking5panic17h75f4230eb5344784E>
 8001d48:	0000                	unimp
 8001d4a:	4599                	li	a1,6
 8001d4c:	00000097          	auipc	ra,0x0
 8001d50:	102080e7          	jalr	258(ra) # 8001e4e <_ZN4core9panicking18panic_bounds_check17hdb2123637d4e3120E>
 8001d54:	0000                	unimp
 8001d56:	40014537          	lui	a0,0x40014
 8001d5a:	80052583          	lw	a1,-2048(a0) # 40013800 <_stack_start+0x2000b800>
 8001d5e:	80452503          	lw	a0,-2044(a0)
 8001d62:	08002537          	lui	a0,0x8002
 8001d66:	28b50513          	addi	a0,a0,651 # 800228b <.L__unnamed_3>
 8001d6a:	080025b7          	lui	a1,0x8002
 8001d6e:	2b858693          	addi	a3,a1,696 # 80022b8 <.L__unnamed_4>
 8001d72:	6591                	lui	a1,0x4
 8001d74:	26458593          	addi	a1,a1,612 # 4264 <_hart_stack_size+0x3a64>
 8001d78:	958a                	add	a1,a1,sp
 8001d7a:	862e                	mv	a2,a1
 8001d7c:	02b00593          	li	a1,43
 8001d80:	00000097          	auipc	ra,0x0
 8001d84:	0f8080e7          	jalr	248(ra) # 8001e78 <_ZN4core6option18expect_none_failed17h8707ecf19f9d7fafE>
 8001d88:	0000                	unimp
 8001d8a:	45f1                	li	a1,28
 8001d8c:	8532                	mv	a0,a2
 8001d8e:	00000097          	auipc	ra,0x0
 8001d92:	0c0080e7          	jalr	192(ra) # 8001e4e <_ZN4core9panicking18panic_bounds_check17hdb2123637d4e3120E>
 8001d96:	0000                	unimp
 8001d98:	45f1                	li	a1,28
 8001d9a:	8536                	mv	a0,a3
 8001d9c:	00000097          	auipc	ra,0x0
 8001da0:	0b2080e7          	jalr	178(ra) # 8001e4e <_ZN4core9panicking18panic_bounds_check17hdb2123637d4e3120E>
 8001da4:	0000                	unimp
 8001da6:	45c1                	li	a1,16
 8001da8:	8532                	mv	a0,a2
 8001daa:	00000097          	auipc	ra,0x0
 8001dae:	0a4080e7          	jalr	164(ra) # 8001e4e <_ZN4core9panicking18panic_bounds_check17hdb2123637d4e3120E>
 8001db2:	0000                	unimp
 8001db4:	45b1                	li	a1,12
 8001db6:	8536                	mv	a0,a3
 8001db8:	00000097          	auipc	ra,0x0
 8001dbc:	096080e7          	jalr	150(ra) # 8001e4e <_ZN4core9panicking18panic_bounds_check17hdb2123637d4e3120E>
 8001dc0:	0000                	unimp
 8001dc2:	45b1                	li	a1,12
 8001dc4:	853a                	mv	a0,a4
 8001dc6:	00000097          	auipc	ra,0x0
 8001dca:	088080e7          	jalr	136(ra) # 8001e4e <_ZN4core9panicking18panic_bounds_check17hdb2123637d4e3120E>
 8001dce:	0000                	unimp
 8001dd0:	07800593          	li	a1,120
 8001dd4:	00000097          	auipc	ra,0x0
 8001dd8:	07a080e7          	jalr	122(ra) # 8001e4e <_ZN4core9panicking18panic_bounds_check17hdb2123637d4e3120E>
 8001ddc:	0000                	unimp
 8001dde:	4591                	li	a1,4
 8001de0:	8536                	mv	a0,a3
 8001de2:	00000097          	auipc	ra,0x0
 8001de6:	06c080e7          	jalr	108(ra) # 8001e4e <_ZN4core9panicking18panic_bounds_check17hdb2123637d4e3120E>
 8001dea:	0000                	unimp
 8001dec:	4591                	li	a1,4
 8001dee:	8522                	mv	a0,s0
 8001df0:	00000097          	auipc	ra,0x0
 8001df4:	05e080e7          	jalr	94(ra) # 8001e4e <_ZN4core9panicking18panic_bounds_check17hdb2123637d4e3120E>
 8001df8:	0000                	unimp
 8001dfa:	05400593          	li	a1,84
 8001dfe:	00000097          	auipc	ra,0x0
 8001e02:	050080e7          	jalr	80(ra) # 8001e4e <_ZN4core9panicking18panic_bounds_check17hdb2123637d4e3120E>
 8001e06:	0000                	unimp
 8001e08:	07800593          	li	a1,120
 8001e0c:	8532                	mv	a0,a2
 8001e0e:	00000097          	auipc	ra,0x0
 8001e12:	040080e7          	jalr	64(ra) # 8001e4e <_ZN4core9panicking18panic_bounds_check17hdb2123637d4e3120E>
 8001e16:	0000                	unimp
 8001e18:	00000097          	auipc	ra,0x0
 8001e1c:	052080e7          	jalr	82(ra) # 8001e6a <_ZN4core6option13expect_failed17hf40c26b75ed20b1aE>
 8001e20:	0000                	unimp
 8001e22:	08003537          	lui	a0,0x8003
 8001e26:	36050513          	addi	a0,a0,864 # 8003360 <str.0.111>
 8001e2a:	45e5                	li	a1,25
 8001e2c:	00000097          	auipc	ra,0x0
 8001e30:	014080e7          	jalr	20(ra) # 8001e40 <_ZN4core9panicking5panic17h75f4230eb5344784E>
 8001e34:	0000                	unimp
 8001e36:	00000097          	auipc	ra,0x0
 8001e3a:	026080e7          	jalr	38(ra) # 8001e5c <_ZN4core9panicking9panic_fmt17ha64a211bdef969edE>
	...

08001e40 <_ZN4core9panicking5panic17h75f4230eb5344784E>:
 8001e40:	1141                	addi	sp,sp,-16
 8001e42:	c606                	sw	ra,12(sp)
 8001e44:	00000097          	auipc	ra,0x0
 8001e48:	018080e7          	jalr	24(ra) # 8001e5c <_ZN4core9panicking9panic_fmt17ha64a211bdef969edE>
	...

08001e4e <_ZN4core9panicking18panic_bounds_check17hdb2123637d4e3120E>:
 8001e4e:	1141                	addi	sp,sp,-16
 8001e50:	c606                	sw	ra,12(sp)
 8001e52:	00000097          	auipc	ra,0x0
 8001e56:	00a080e7          	jalr	10(ra) # 8001e5c <_ZN4core9panicking9panic_fmt17ha64a211bdef969edE>
	...

08001e5c <_ZN4core9panicking9panic_fmt17ha64a211bdef969edE>:
 8001e5c:	1141                	addi	sp,sp,-16
 8001e5e:	c606                	sw	ra,12(sp)
 8001e60:	00000097          	auipc	ra,0x0
 8001e64:	098080e7          	jalr	152(ra) # 8001ef8 <rust_begin_unwind>
	...

08001e6a <_ZN4core6option13expect_failed17hf40c26b75ed20b1aE>:
 8001e6a:	1141                	addi	sp,sp,-16
 8001e6c:	c606                	sw	ra,12(sp)
 8001e6e:	00000097          	auipc	ra,0x0
 8001e72:	fee080e7          	jalr	-18(ra) # 8001e5c <_ZN4core9panicking9panic_fmt17ha64a211bdef969edE>
	...

08001e78 <_ZN4core6option18expect_none_failed17h8707ecf19f9d7fafE>:
 8001e78:	1141                	addi	sp,sp,-16
 8001e7a:	c606                	sw	ra,12(sp)
 8001e7c:	00000097          	auipc	ra,0x0
 8001e80:	fe0080e7          	jalr	-32(ra) # 8001e5c <_ZN4core9panicking9panic_fmt17ha64a211bdef969edE>
	...

08001e86 <_ZN67_$LT$gd32vf103xx_hal..serial..Error$u20$as$u20$core..fmt..Debug$GT$3fmt17h64788800725db47dE>:
 8001e86:	00054503          	lbu	a0,0(a0)
 8001e8a:	4605                	li	a2,1
 8001e8c:	02a65163          	bge	a2,a0,8001eae <_ZN67_$LT$gd32vf103xx_hal..serial..Error$u20$as$u20$core..fmt..Debug$GT$3fmt17h64788800725db47dE+0x28>
 8001e90:	4609                	li	a2,2
 8001e92:	02c50863          	beq	a0,a2,8001ec2 <_ZN67_$LT$gd32vf103xx_hal..serial..Error$u20$as$u20$core..fmt..Debug$GT$3fmt17h64788800725db47dE+0x3c>
 8001e96:	460d                	li	a2,3
 8001e98:	02c51e63          	bne	a0,a2,8001ed4 <_ZN67_$LT$gd32vf103xx_hal..serial..Error$u20$as$u20$core..fmt..Debug$GT$3fmt17h64788800725db47dE+0x4e>
 8001e9c:	4dd0                	lw	a2,28(a1)
 8001e9e:	4d88                	lw	a0,24(a1)
 8001ea0:	465c                	lw	a5,12(a2)
 8001ea2:	080035b7          	lui	a1,0x8003
 8001ea6:	39758593          	addi	a1,a1,919 # 8003397 <.Lanon.a3253abe55c45a025617bb90117944e7.90>
 8001eaa:	4619                	li	a2,6
 8001eac:	8782                	jr	a5
 8001eae:	ed05                	bnez	a0,8001ee6 <_ZN67_$LT$gd32vf103xx_hal..serial..Error$u20$as$u20$core..fmt..Debug$GT$3fmt17h64788800725db47dE+0x60>
 8001eb0:	4dd0                	lw	a2,28(a1)
 8001eb2:	4d88                	lw	a0,24(a1)
 8001eb4:	465c                	lw	a5,12(a2)
 8001eb6:	080035b7          	lui	a1,0x8003
 8001eba:	38b58593          	addi	a1,a1,907 # 800338b <.Lanon.a3253abe55c45a025617bb90117944e7.92>
 8001ebe:	461d                	li	a2,7
 8001ec0:	8782                	jr	a5
 8001ec2:	4dd0                	lw	a2,28(a1)
 8001ec4:	4d88                	lw	a0,24(a1)
 8001ec6:	465c                	lw	a5,12(a2)
 8001ec8:	080035b7          	lui	a1,0x8003
 8001ecc:	38458593          	addi	a1,a1,900 # 8003384 <.Lanon.a3253abe55c45a025617bb90117944e7.82>
 8001ed0:	461d                	li	a2,7
 8001ed2:	8782                	jr	a5
 8001ed4:	4dd0                	lw	a2,28(a1)
 8001ed6:	4d88                	lw	a0,24(a1)
 8001ed8:	465c                	lw	a5,12(a2)
 8001eda:	080035b7          	lui	a1,0x8003
 8001ede:	37958593          	addi	a1,a1,889 # 8003379 <.Lanon.a3253abe55c45a025617bb90117944e7.81>
 8001ee2:	462d                	li	a2,11
 8001ee4:	8782                	jr	a5
 8001ee6:	4dd0                	lw	a2,28(a1)
 8001ee8:	4d88                	lw	a0,24(a1)
 8001eea:	465c                	lw	a5,12(a2)
 8001eec:	080035b7          	lui	a1,0x8003
 8001ef0:	39258593          	addi	a1,a1,914 # 8003392 <.Lanon.a3253abe55c45a025617bb90117944e7.91>
 8001ef4:	4615                	li	a2,5
 8001ef6:	8782                	jr	a5

08001ef8 <rust_begin_unwind>:
 8001ef8:	0330000f          	fence	rw,rw
 8001efc:	a001                	j	8001efc <rust_begin_unwind+0x4>

08001efe <DefaultExceptionHandler>:
 8001efe:	a001                	j	8001efe <DefaultExceptionHandler>

08001f00 <DefaultInterruptHandler>:
 8001f00:	a001                	j	8001f00 <DefaultInterruptHandler>

08001f02 <default_pre_init>:
 8001f02:	8082                	ret

08001f04 <default_mp_hook>:
 8001f04:	1141                	addi	sp,sp,-16
 8001f06:	c606                	sw	ra,12(sp)
 8001f08:	00000097          	auipc	ra,0x0
 8001f0c:	2fe080e7          	jalr	766(ra) # 8002206 <__read_mhartid>
 8001f10:	c511                	beqz	a0,8001f1c <default_mp_hook+0x18>
 8001f12:	00000097          	auipc	ra,0x0
 8001f16:	2ee080e7          	jalr	750(ra) # 8002200 <__wfi>
 8001f1a:	bfe5                	j	8001f12 <default_mp_hook+0xe>
 8001f1c:	4505                	li	a0,1
 8001f1e:	40b2                	lw	ra,12(sp)
 8001f20:	0141                	addi	sp,sp,16
 8001f22:	8082                	ret

08001f24 <_setup_interrupts>:
 8001f24:	20000293          	li	t0,512
 8001f28:	7d02a073          	csrs	0x7d0,t0
 8001f2c:	00000297          	auipc	t0,0x0
 8001f30:	0d428293          	addi	t0,t0,212 # 8002000 <vectors>
 8001f34:	30729073          	csrw	0x307,t0
 8001f38:	00000297          	auipc	t0,0x0
 8001f3c:	02828293          	addi	t0,t0,40 # 8001f60 <_irq_handler>
 8001f40:	7ec29073          	csrw	0x7ec,t0
 8001f44:	7ec0e073          	csrsi	0x7ec,1
 8001f48:	ffffe297          	auipc	t0,0xffffe
 8001f4c:	1b828293          	addi	t0,t0,440 # 8000100 <_start_trap>
 8001f50:	fc02f293          	andi	t0,t0,-64
 8001f54:	0032e293          	ori	t0,t0,3
 8001f58:	30529073          	csrw	mtvec,t0
 8001f5c:	8082                	ret
	...

08001f60 <_irq_handler>:
 8001f60:	715d                	addi	sp,sp,-80
 8001f62:	c006                	sw	ra,0(sp)
 8001f64:	c212                	sw	tp,4(sp)
 8001f66:	c416                	sw	t0,8(sp)
 8001f68:	c61a                	sw	t1,12(sp)
 8001f6a:	c81e                	sw	t2,16(sp)
 8001f6c:	ca2a                	sw	a0,20(sp)
 8001f6e:	cc2e                	sw	a1,24(sp)
 8001f70:	ce32                	sw	a2,28(sp)
 8001f72:	d036                	sw	a3,32(sp)
 8001f74:	d23a                	sw	a4,36(sp)
 8001f76:	d43e                	sw	a5,40(sp)
 8001f78:	d642                	sw	a6,44(sp)
 8001f7a:	d846                	sw	a7,48(sp)
 8001f7c:	da72                	sw	t3,52(sp)
 8001f7e:	dc76                	sw	t4,56(sp)
 8001f80:	de7a                	sw	t5,60(sp)
 8001f82:	c0fe                	sw	t6,64(sp)
 8001f84:	7ee8d073          	csrwi	0x7ee,17
 8001f88:	7ef95073          	csrwi	0x7ef,18
 8001f8c:	7eb9d073          	csrwi	0x7eb,19
 8001f90:	7ed090f3          	csrrw	ra,0x7ed,ra
 8001f94:	30047073          	csrci	mstatus,8
 8001f98:	42b6                	lw	t0,76(sp)
 8001f9a:	7c429073          	csrw	0x7c4,t0
 8001f9e:	42a6                	lw	t0,72(sp)
 8001fa0:	34129073          	csrw	mepc,t0
 8001fa4:	4296                	lw	t0,68(sp)
 8001fa6:	34229073          	csrw	mcause,t0
 8001faa:	4082                	lw	ra,0(sp)
 8001fac:	4212                	lw	tp,4(sp)
 8001fae:	42a2                	lw	t0,8(sp)
 8001fb0:	4332                	lw	t1,12(sp)
 8001fb2:	43c2                	lw	t2,16(sp)
 8001fb4:	4552                	lw	a0,20(sp)
 8001fb6:	45e2                	lw	a1,24(sp)
 8001fb8:	4672                	lw	a2,28(sp)
 8001fba:	5682                	lw	a3,32(sp)
 8001fbc:	5712                	lw	a4,36(sp)
 8001fbe:	57a2                	lw	a5,40(sp)
 8001fc0:	5832                	lw	a6,44(sp)
 8001fc2:	58c2                	lw	a7,48(sp)
 8001fc4:	5e52                	lw	t3,52(sp)
 8001fc6:	5ee2                	lw	t4,56(sp)
 8001fc8:	5f72                	lw	t5,60(sp)
 8001fca:	4f86                	lw	t6,64(sp)
 8001fcc:	6161                	addi	sp,sp,80
 8001fce:	30200073          	mret
	...

08002000 <vectors>:
	...

08002200 <__wfi>:
 8002200:	10500073          	wfi
 8002204:	8082                	ret

08002206 <__read_mhartid>:
 8002206:	f1402573          	csrr	a0,mhartid
 800220a:	8082                	ret

0800220c <__read_mstatus>:
 800220c:	30002573          	csrr	a0,mstatus
 8002210:	8082                	ret

08002212 <__set_mstatus>:
 8002212:	30052073          	csrs	mstatus,a0
 8002216:	8082                	ret

08002218 <__clear_mstatus>:
 8002218:	30053073          	csrc	mstatus,a0
 800221c:	8082                	ret

0800221e <__read_mcause>:
 800221e:	34202573          	csrr	a0,mcause
 8002222:	8082                	ret

08002224 <memcpy>:
 8002224:	ca11                	beqz	a2,8002238 <memcpy+0x14>
 8002226:	86aa                	mv	a3,a0
 8002228:	00058703          	lb	a4,0(a1)
 800222c:	00e68023          	sb	a4,0(a3)
 8002230:	167d                	addi	a2,a2,-1
 8002232:	0685                	addi	a3,a3,1
 8002234:	0585                	addi	a1,a1,1
 8002236:	fa6d                	bnez	a2,8002228 <memcpy+0x4>
 8002238:	8082                	ret

0800223a <memset>:
 800223a:	c619                	beqz	a2,8002248 <memset+0xe>
 800223c:	86aa                	mv	a3,a0
 800223e:	00b68023          	sb	a1,0(a3)
 8002242:	167d                	addi	a2,a2,-1
 8002244:	0685                	addi	a3,a3,1
 8002246:	fe65                	bnez	a2,800223e <memset+0x4>
 8002248:	8082                	ret

0800224a <default_setup_interrupts>:
 800224a:	ffffe297          	auipc	t0,0xffffe
 800224e:	eb628293          	addi	t0,t0,-330 # 8000100 <_start_trap>
 8002252:	30529073          	csrw	mtvec,t0
 8002256:	8082                	ret

08002258 <abort>:
 8002258:	a001                	j	8002258 <abort>

Disassembly of section .rodata:

08002260 <.L__unnamed_2>:
 8002260:	6c6c6163          	bltu	s8,t1,8002922 <.L__unnamed_1+0x65a>
 8002264:	6465                	lui	s0,0x19
 8002266:	6020                	flw	fs0,64(s0)
 8002268:	6974704f          	fnmadd.s	ft0,fs0,fs7,fa3
 800226c:	3a3a6e6f          	jal	t3,80a8e0e <_sidata+0xa5a3e>
 8002270:	6e75                	lui	t3,0x1d
 8002272:	70617277          	0x70617277
 8002276:	2928                	fld	fa0,80(a0)
 8002278:	2060                	fld	fs0,192(s0)
 800227a:	61206e6f          	jal	t3,800888c <_sidata+0x54bc>
 800227e:	6020                	flw	fs0,64(s0)
 8002280:	6f4e                	flw	ft10,208(sp)
 8002282:	656e                	flw	fa0,216(sp)
 8002284:	2060                	fld	fs0,192(s0)
 8002286:	6176                	flw	ft2,92(sp)
 8002288:	756c                	flw	fa1,108(a0)
 800228a:	                	lui	t1,0x19

0800228b <.L__unnamed_3>:
 800228b:	6c6c6163          	bltu	s8,t1,800294d <.L__unnamed_1+0x685>
 800228f:	6465                	lui	s0,0x19
 8002291:	6020                	flw	fs0,64(s0)
 8002293:	6552                	flw	fa0,20(sp)
 8002295:	746c7573          	csrrci	a0,0x746,24
 8002299:	3a3a                	fld	fs4,424(sp)
 800229b:	6e75                	lui	t3,0x1d
 800229d:	70617277          	0x70617277
 80022a1:	2928                	fld	fa0,80(a0)
 80022a3:	2060                	fld	fs0,192(s0)
 80022a5:	61206e6f          	jal	t3,80088b7 <_sidata+0x54e7>
 80022a9:	206e                	fld	ft0,216(sp)
 80022ab:	4560                	lw	s0,76(a0)
 80022ad:	7272                	flw	ft4,60(sp)
 80022af:	2060                	fld	fs0,192(s0)
 80022b1:	6176                	flw	ft2,92(sp)
 80022b3:	756c                	flw	fa1,108(a0)
 80022b5:	0065                	c.nop	25
	...

080022b8 <.L__unnamed_4>:
 80022b8:	01da                	slli	gp,gp,0x16
 80022ba:	0800                	addi	s0,sp,16
 80022bc:	0001                	nop
 80022be:	0000                	unimp
 80022c0:	0001                	nop
 80022c2:	0000                	unimp
 80022c4:	1e86                	slli	t4,t4,0x21
 80022c6:	0800                	addi	s0,sp,16

080022c8 <.L__unnamed_1>:
 80022c8:	01ed                	addi	gp,gp,27
 80022ca:	0010                	0x10
 80022cc:	0000                	unimp
 80022ce:	0011028b          	0x11028b
 80022d2:	0000                	unimp
 80022d4:	032c                	addi	a1,sp,392
 80022d6:	0021                	c.nop	8
 80022d8:	0000                	unimp
 80022da:	0249                	addi	tp,tp,18
 80022dc:	0031                	c.nop	12
 80022de:	0000                	unimp
 80022e0:	0170                	addi	a2,sp,140
 80022e2:	0041                	c.nop	16
 80022e4:	0000                	unimp
 80022e6:	00120227          	0x120227
 80022ea:	0000                	unimp
 80022ec:	0374                	addi	a3,sp,396
 80022ee:	0022                	c.slli	zero,0x8
 80022f0:	0000                	unimp
 80022f2:	0362                	slli	t1,t1,0x18
 80022f4:	0032                	c.slli	zero,0xc
 80022f6:	0000                	unimp
 80022f8:	00420247          	fmsub.s	ft4,ft4,ft4,ft0,rne
 80022fc:	0000                	unimp
 80022fe:	0118                	addi	a4,sp,128
 8002300:	00000013          	nop
 8002304:	01c4                	addi	s1,sp,196
 8002306:	00000023          	sb	zero,0(zero) # 0 <_heap_size>
 800230a:	0033022b          	0x33022b
 800230e:	0000                	unimp
 8002310:	004301cf          	fnmadd.s	ft3,ft6,ft4,ft0,rne
 8002314:	0000                	unimp
 8002316:	ff15                	bnez	a4,8002252 <default_setup_interrupts+0x8>
 8002318:	0000                	unimp
 800231a:	0001                	nop
 800231c:	0010fecf          	fnmadd.s	ft9,ft1,ft1,ft0
 8002320:	0001                	nop
 8002322:	0020ff13          	andi	t5,ra,2
 8002326:	0001                	nop
 8002328:	01df 0040 0001      	0x1004001df
 800232e:	fee2                	fsw	fs8,124(sp)
 8002330:	0001                	nop
 8002332:	0001                	nop
 8002334:	fec8                	fsw	fa0,60(a3)
 8002336:	0011                	c.nop	4
 8002338:	0001                	nop
 800233a:	0021ff1b          	0x21ff1b
 800233e:	0001                	nop
 8002340:	00e1                	addi	ra,ra,24
 8002342:	0031                	c.nop	12
 8002344:	0001                	nop
 8002346:	00410237          	lui	tp,0x410
 800234a:	0001                	nop
 800234c:	fe96                	fsw	ft5,124(sp)
 800234e:	0002                	c.slli64	zero
 8002350:	0001                	nop
 8002352:	0012feb3          	and	t4,t0,ra
 8002356:	0001                	nop
 8002358:	015d                	addi	sp,sp,23
 800235a:	0032                	c.slli	zero,0xc
 800235c:	0001                	nop
 800235e:	01e6                	slli	gp,gp,0x19
 8002360:	0042                	c.slli	zero,0x10
 8002362:	0001                	nop
 8002364:	fe85                	bnez	a3,800229c <.L__unnamed_3+0x11>
 8002366:	00010003          	lb	zero,0(sp)
 800236a:	ff1d                	bnez	a4,80022a8 <.L__unnamed_3+0x1d>
 800236c:	00010013          	mv	zero,sp
 8002370:	01c2                	slli	gp,gp,0x10
 8002372:	00010033          	add	zero,sp,zero
 8002376:	0184                	addi	s1,sp,192
 8002378:	00010043          	fmadd.s	ft0,ft2,ft0,ft0,rne
 800237c:	016d                	addi	sp,sp,27
 800237e:	0034                	addi	a3,sp,8
 8002380:	0001                	nop
 8002382:	010d                	addi	sp,sp,3
 8002384:	0044                	addi	s1,sp,4
 8002386:	0001                	nop
 8002388:	001001af          	0x1001af
 800238c:	0002                	c.slli64	zero
 800238e:	01df 0020 0002      	0x2002001df
 8002394:	003000db          	0x3000db
 8002398:	0002                	c.slli64	zero
 800239a:	00010187          	0x10187
 800239e:	0002                	c.slli64	zero
 80023a0:	02b1                	addi	t0,t0,12
 80023a2:	0011                	c.nop	4
 80023a4:	0002                	c.slli64	zero
 80023a6:	0204                	addi	s1,sp,256
 80023a8:	0021                	c.nop	8
 80023aa:	0002                	c.slli64	zero
 80023ac:	fe88                	fsw	fa0,56(a3)
 80023ae:	0041                	c.nop	16
 80023b0:	0002                	c.slli64	zero
 80023b2:	026c                	addi	a1,sp,268
 80023b4:	0002                	c.slli64	zero
 80023b6:	0002                	c.slli64	zero
 80023b8:	030d                	addi	t1,t1,3
 80023ba:	0012                	c.slli	zero,0x4
 80023bc:	0002                	c.slli64	zero
 80023be:	0109                	addi	sp,sp,2
 80023c0:	0022                	c.slli	zero,0x8
 80023c2:	0002                	c.slli64	zero
 80023c4:	fed1                	bnez	a3,8002360 <.L__unnamed_1+0x98>
 80023c6:	0032                	c.slli	zero,0xc
 80023c8:	0002                	c.slli64	zero
 80023ca:	fe14                	fsw	fa3,56(a2)
 80023cc:	0042                	c.slli	zero,0x10
 80023ce:	0002                	c.slli64	zero
 80023d0:	028c                	addi	a1,sp,320
 80023d2:	00020003          	lb	zero,0(tp) # 410000 <_hart_stack_size+0x40f800>
 80023d6:	021f 0013 0002      	0x20013021f
 80023dc:	fe58                	fsw	fa4,60(a2)
 80023de:	00020033          	add	zero,tp,zero
 80023e2:	0043fdeb          	0x43fdeb
 80023e6:	0002                	c.slli64	zero
 80023e8:	01fa                	slli	gp,gp,0x1e
 80023ea:	0004                	0x4
 80023ec:	0002                	c.slli64	zero
 80023ee:	0106                	slli	sp,sp,0x1
 80023f0:	0014                	0x14
 80023f2:	0002                	c.slli64	zero
 80023f4:	fe15                	bnez	a2,8002330 <.L__unnamed_1+0x68>
 80023f6:	0034                	addi	a3,sp,8
 80023f8:	0002                	c.slli64	zero
 80023fa:	fe0a                	fsw	ft2,60(sp)
 80023fc:	0044                	addi	s1,sp,4
 80023fe:	0002                	c.slli64	zero
 8002400:	019c                	addi	a5,sp,192
 8002402:	0000                	unimp
 8002404:	01e50003          	lb	zero,30(a0)
 8002408:	0010                	0x10
 800240a:	01fa0003          	lb	zero,31(s4)
 800240e:	0020                	addi	s0,sp,8
 8002410:	01730003          	lb	zero,23(t1) # 19017 <_hart_stack_size+0x18817>
 8002414:	0030                	addi	a2,sp,8
 8002416:	018f0003          	lb	zero,24(t5)
 800241a:	0001                	nop
 800241c:	02fa0003          	lb	zero,47(s4)
 8002420:	0011                	c.nop	4
 8002422:	03a40003          	lb	zero,58(s0) # 1903a <_hart_stack_size+0x1883a>
 8002426:	0021                	c.nop	8
 8002428:	039c0003          	lb	zero,57(s8)
 800242c:	0031                	c.nop	12
 800242e:	02d20003          	lb	zero,45(tp) # 2d <_heap_size+0x2d>
 8002432:	0041                	c.nop	16
 8002434:	024e0003          	lb	zero,36(t3) # 1d024 <_hart_stack_size+0x1c824>
 8002438:	0032                	c.slli	zero,0xc
 800243a:	02d00003          	lb	zero,45(zero) # 2d <_heap_size+0x2d>
 800243e:	0042                	c.slli	zero,0x10
 8002440:	fd890003          	lb	zero,-40(s2)
 8002444:	00030003          	lb	zero,0(t1)
 8002448:	0013fdaf          	0x13fdaf
 800244c:	fdfb0003          	lb	zero,-33(s6)
 8002450:	00030023          	sb	zero,0(t1)
 8002454:	fea4                	fsw	fs1,120(a3)
 8002456:	00030033          	add	zero,t1,zero
 800245a:	fe70                	fsw	fa2,124(a2)
 800245c:	0004                	0x4
 800245e:	fdde0003          	lb	zero,-35(t3)
 8002462:	0014                	0x14
 8002464:	fdbb0003          	lb	zero,-37(s6)
 8002468:	0024                	addi	s1,sp,8
 800246a:	fdf30003          	lb	zero,-33(t1)
 800246e:	0034                	addi	a3,sp,8
 8002470:	feaf0003          	lb	zero,-22(t5)
 8002474:	0000                	unimp
 8002476:	0005                	c.nop	1
 8002478:	fe52                	fsw	fs4,60(sp)
 800247a:	0010                	0x10
 800247c:	0005                	c.nop	1
 800247e:	fea1                	bnez	a3,80023d6 <.L__unnamed_1+0x10e>
 8002480:	0020                	addi	s0,sp,8
 8002482:	0005                	c.nop	1
 8002484:	00400113          	li	sp,4
 8002488:	0005                	c.nop	1
 800248a:	01a4                	addi	s1,sp,200
 800248c:	0021                	c.nop	8
 800248e:	0005                	c.nop	1
 8002490:	01fd                	addi	gp,gp,31
 8002492:	0031                	c.nop	12
 8002494:	0005                	c.nop	1
 8002496:	00410103          	lb	sp,4(sp)
 800249a:	0005                	c.nop	1
 800249c:	015e                	slli	sp,sp,0x17
 800249e:	0002                	c.slli64	zero
 80024a0:	0005                	c.nop	1
 80024a2:	02ad                	addi	t0,t0,11
 80024a4:	0012                	c.slli	zero,0x4
 80024a6:	0005                	c.nop	1
 80024a8:	0266                	slli	tp,tp,0x19
 80024aa:	0022                	c.slli	zero,0x8
 80024ac:	0005                	c.nop	1
 80024ae:	00d2                	slli	ra,ra,0x14
 80024b0:	0032                	c.slli	zero,0xc
 80024b2:	0005                	c.nop	1
 80024b4:	fe80                	fsw	fs0,56(a3)
 80024b6:	00050033          	add	zero,a0,zero
 80024ba:	fe78                	fsw	fa4,124(a2)
 80024bc:	00050043          	fmadd.s	ft0,fa0,ft0,ft0,rne
 80024c0:	feaa                	fsw	fa0,124(sp)
 80024c2:	0014                	0x14
 80024c4:	0005                	c.nop	1
 80024c6:	fdd0                	fsw	fa2,60(a1)
 80024c8:	0024                	addi	s1,sp,8
 80024ca:	0005                	c.nop	1
 80024cc:	fe6d                	bnez	a2,80024c6 <.L__unnamed_1+0x1fe>
 80024ce:	0034                	addi	a3,sp,8
 80024d0:	0005                	c.nop	1
 80024d2:	fef8                	fsw	fa4,124(a3)
 80024d4:	0012                	c.slli	zero,0x4
 80024d6:	0000                	unimp
 80024d8:	ff52                	fsw	fs4,188(sp)
 80024da:	0022                	c.slli	zero,0x8
 80024dc:	0000                	unimp
 80024de:	0121                	addi	sp,sp,8
 80024e0:	0042                	c.slli	zero,0x10
 80024e2:	0000                	unimp
 80024e4:	0172                	slli	sp,sp,0x1c
 80024e6:	0132                	slli	sp,sp,0xc
 80024e8:	0000                	unimp
 80024ea:	0161                	addi	sp,sp,24
 80024ec:	00000133          	add	sp,zero,zero
 80024f0:	0172                	slli	sp,sp,0x1c
 80024f2:	0124                	addi	s1,sp,136
 80024f4:	0000                	unimp
 80024f6:	0135                	addi	sp,sp,13
 80024f8:	0134                	addi	a3,sp,136
 80024fa:	0000                	unimp
 80024fc:	feb6                	fsw	fa3,124(sp)
 80024fe:	0222                	slli	tp,tp,0x8
 8002500:	0000                	unimp
 8002502:	0200                	addi	s0,sp,256
 8002504:	00000243          	fmadd.s	ft4,ft0,ft0,ft0,rne
 8002508:	024401bf ff030000 	0xff030000024401bf
 8002510:	0322                	slli	t1,t1,0x8
 8002512:	0000                	unimp
 8002514:	fe5d                	bnez	a2,80024d2 <.L__unnamed_1+0x20a>
 8002516:	0332                	slli	t1,t1,0xc
 8002518:	0000                	unimp
 800251a:	ff1e                	fsw	ft7,188(sp)
 800251c:	00000323          	sb	zero,6(zero) # 6 <_heap_size+0x6>
 8002520:	ff2e                	fsw	fa1,188(sp)
 8002522:	0314                	addi	a3,sp,384
 8002524:	0000                	unimp
 8002526:	ff04                	fsw	fs1,56(a4)
 8002528:	0122                	slli	sp,sp,0x8
 800252a:	0001                	nop
 800252c:	ff12                	fsw	ft4,188(sp)
 800252e:	0320                	addi	s0,sp,392
 8002530:	0001                	nop
 8002532:	01a4                	addi	s1,sp,200
 8002534:	0331                	addi	t1,t1,12
 8002536:	0001                	nop
 8002538:	01a9                	addi	gp,gp,10
 800253a:	0341                	addi	t1,t1,16
 800253c:	0001                	nop
 800253e:	052101cf          	0x52101cf
 8002542:	0001                	nop
 8002544:	01c0                	addi	s0,sp,196
 8002546:	0531                	addi	a0,a0,12
 8002548:	0001                	nop
 800254a:	fe49                	bnez	a2,80024e4 <.L__unnamed_1+0x21c>
 800254c:	00030003          	lb	zero,0(t1)
 8002550:	0013fef3          	csrrci	t4,fflags,7
 8002554:	fecd0003          	lb	zero,-20(s10)
 8002558:	00030023          	sb	zero,0(t1)
 800255c:	fe8c                	fsw	fa1,56(a3)
 800255e:	00030233          	add	tp,t1,zero
 8002562:	0124                	addi	s1,sp,136
 8002564:	0341                	addi	t1,t1,16
 8002566:	01560003          	lb	zero,21(a2)
 800256a:	0302                	c.slli64	t1
 800256c:	01560003          	lb	zero,21(a2)
 8002570:	0312                	slli	t1,t1,0x4
 8002572:	01830003          	lb	zero,24(t1)
 8002576:	0322                	slli	t1,t1,0x8
 8002578:	016f0003          	lb	zero,22(t5)
 800257c:	0332                	slli	t1,t1,0xc
 800257e:	01490003          	lb	zero,20(s2)
 8002582:	0342                	slli	t1,t1,0x10
 8002584:	fef60003          	lb	zero,-17(a2)
 8002588:	00030333          	add	t1,t1,zero
 800258c:	feb1                	bnez	a3,80024e8 <.L__unnamed_1+0x220>
 800258e:	00030343          	fmadd.s	ft6,ft6,ft0,ft0,rne
 8002592:	0541012f          	0x541012f
 8002596:	012e0003          	lb	zero,18(t3)
 800259a:	0522                	slli	a0,a0,0x8
 800259c:	01d10003          	lb	zero,29(sp)
 80025a0:	0532                	slli	a0,a0,0xc
 80025a2:	fe920003          	lb	zero,-23(tp) # ffffffe9 <_stack_start+0xdfff7fe9>
 80025a6:	0024                	addi	s1,sp,8
 80025a8:	0004                	0x4
 80025aa:	fefd                	bnez	a3,80025a8 <.L__unnamed_1+0x2e0>
 80025ac:	0034                	addi	a3,sp,8
 80025ae:	0004                	0x4
 80025b0:	fef8                	fsw	fa4,124(a3)
 80025b2:	0044                	addi	s1,sp,4
 80025b4:	0004                	0x4
 80025b6:	0120                	addi	s0,sp,136
 80025b8:	0242                	slli	tp,tp,0x10
 80025ba:	0004                	0x4
 80025bc:	fef9                	bnez	a3,800259a <.L__unnamed_1+0x2d2>
 80025be:	0234                	addi	a3,sp,264
 80025c0:	0004                	0x4
 80025c2:	ff41                	bnez	a4,800255a <.L__unnamed_1+0x292>
 80025c4:	0244                	addi	s1,sp,260
 80025c6:	0004                	0x4
 80025c8:	015d                	addi	sp,sp,23
 80025ca:	0312                	slli	t1,t1,0x4
 80025cc:	0004                	0x4
 80025ce:	0178                	addi	a4,sp,140
 80025d0:	0322                	slli	t1,t1,0x8
 80025d2:	0004                	0x4
 80025d4:	00bc                	addi	a5,sp,72
 80025d6:	00040303          	lb	t1,0(s0)
 80025da:	00a6                	slli	ra,ra,0x9
 80025dc:	00040313          	mv	t1,s0
 80025e0:	0134                	addi	a3,sp,136
 80025e2:	00040323          	sb	zero,6(s0)
 80025e6:	0131                	addi	sp,sp,12
 80025e8:	00040333          	add	t1,s0,zero
 80025ec:	0532010f          	0x532010f
 80025f0:	0004                	0x4
 80025f2:	00fd                	addi	ra,ra,31
 80025f4:	0542                	slli	a0,a0,0x10
 80025f6:	0004                	0x4
 80025f8:	fe92                	fsw	ft4,124(sp)
 80025fa:	0021                	c.nop	8
 80025fc:	0005                	c.nop	1
 80025fe:	0031fe67          	0x31fe67
 8002602:	0005                	c.nop	1
 8002604:	010c                	addi	a1,sp,128
 8002606:	0012                	c.slli	zero,0x4
 8002608:	0005                	c.nop	1
 800260a:	01be                	slli	gp,gp,0xf
 800260c:	00050023          	sb	zero,0(a0)
 8002610:	0122fe9b          	0x122fe9b
 8002614:	0005                	c.nop	1
 8002616:	fe85                	bnez	a3,800254e <.L__unnamed_1+0x286>
 8002618:	00050113          	mv	sp,a0
 800261c:	fefc                	fsw	fa5,124(a3)
 800261e:	00050123          	sb	zero,2(a0)
 8002622:	fe9d                	bnez	a3,8002560 <.L__unnamed_1+0x298>
 8002624:	0222                	slli	tp,tp,0x8
 8002626:	0005                	c.nop	1
 8002628:	feca                	fsw	fs2,124(sp)
 800262a:	00050213          	mv	tp,a0
 800262e:	ff09                	bnez	a4,8002548 <.L__unnamed_1+0x280>
 8002630:	0224                	addi	s1,sp,264
 8002632:	0005                	c.nop	1
 8002634:	00c6                	slli	ra,ra,0x11
 8002636:	0302                	c.slli64	t1
 8002638:	0005                	c.nop	1
 800263a:	00a9                	addi	ra,ra,10
 800263c:	0312                	slli	t1,t1,0x4
 800263e:	0005                	c.nop	1
 8002640:	02b1                	addi	t0,t0,12
 8002642:	00050313          	mv	t1,a0
 8002646:	02ca                	slli	t0,t0,0x12
 8002648:	00050323          	sb	zero,6(a0)
 800264c:	033301af          	0x33301af
 8002650:	0005                	c.nop	1
 8002652:	0175                	addi	sp,sp,29
 8002654:	0324                	addi	s1,sp,392
 8002656:	0005                	c.nop	1
 8002658:	0110                	addi	a2,sp,128
 800265a:	0520                	addi	s0,sp,648
 800265c:	0005                	c.nop	1
 800265e:	014d                	addi	sp,sp,19
 8002660:	0530                	addi	a2,sp,648
 8002662:	0005                	c.nop	1
 8002664:	0020ff2f          	0x20ff2f
 8002668:	0006                	c.slli	zero,0x1
 800266a:	017c                	addi	a5,sp,140
 800266c:	0011                	c.nop	4
 800266e:	0006                	c.slli	zero,0x1
 8002670:	fe1a                	fsw	ft6,60(sp)
 8002672:	0031                	c.nop	12
 8002674:	0006                	c.slli	zero,0x1
 8002676:	0126                	slli	sp,sp,0x9
 8002678:	0012                	c.slli	zero,0x4
 800267a:	0006                	c.slli	zero,0x1
 800267c:	0139                	addi	sp,sp,14
 800267e:	0022                	c.slli	zero,0x8
 8002680:	0006                	c.slli	zero,0x1
 8002682:	0042ff0b          	0x42ff0b
 8002686:	0006                	c.slli	zero,0x1
 8002688:	0171                	addi	sp,sp,28
 800268a:	00060023          	sb	zero,0(a2)
 800268e:	fee6                	fsw	fs9,124(sp)
 8002690:	0004                	0x4
 8002692:	0006                	c.slli	zero,0x1
 8002694:	feb1                	bnez	a3,80025f0 <.L__unnamed_1+0x328>
 8002696:	0121                	addi	sp,sp,8
 8002698:	0006                	c.slli	zero,0x1
 800269a:	ff2a                	fsw	fa0,188(sp)
 800269c:	0132                	slli	sp,sp,0xc
 800269e:	0006                	c.slli	zero,0x1
 80026a0:	0118                	addi	a4,sp,128
 80026a2:	00060113          	mv	sp,a2
 80026a6:	fed8                	fsw	fa4,60(a3)
 80026a8:	0202                	c.slli64	tp
 80026aa:	0006                	c.slli	zero,0x1
 80026ac:	008d                	addi	ra,ra,3
 80026ae:	0222                	slli	tp,tp,0x8
 80026b0:	0006                	c.slli	zero,0x1
 80026b2:	00a5                	addi	ra,ra,9
 80026b4:	0232                	slli	tp,tp,0xc
 80026b6:	0006                	c.slli	zero,0x1
 80026b8:	ff04                	fsw	fs1,56(a4)
 80026ba:	00060213          	mv	tp,a2
 80026be:	016e                	slli	sp,sp,0x1b
 80026c0:	00060233          	add	tp,a2,zero
 80026c4:	0162                	slli	sp,sp,0x18
 80026c6:	0330                	addi	a2,sp,392
 80026c8:	0006                	c.slli	zero,0x1
 80026ca:	ff01                	bnez	a4,80025e2 <.L__unnamed_1+0x31a>
 80026cc:	0321                	addi	t1,t1,8
 80026ce:	0006                	c.slli	zero,0x1
 80026d0:	fee2                	fsw	fs8,124(sp)
 80026d2:	0331                	addi	t1,t1,12
 80026d4:	0006                	c.slli	zero,0x1
 80026d6:	0138                	addi	a4,sp,136
 80026d8:	0312                	slli	t1,t1,0x4
 80026da:	0006                	c.slli	zero,0x1
 80026dc:	0332feb3          	remu	t4,t0,s3
 80026e0:	0006                	c.slli	zero,0x1
 80026e2:	fee0                	fsw	fs0,124(a3)
 80026e4:	0342                	slli	t1,t1,0x10
 80026e6:	0006                	c.slli	zero,0x1
 80026e8:	ff15                	bnez	a4,8002624 <.L__unnamed_1+0x35c>
 80026ea:	00060333          	add	t1,a2,zero
 80026ee:	0511ff03          	0x511ff03
 80026f2:	0006                	c.slli	zero,0x1
 80026f4:	fe78                	fsw	fa4,124(a2)
 80026f6:	0522                	slli	a0,a0,0x8
 80026f8:	0006                	c.slli	zero,0x1
 80026fa:	fed8                	fsw	fa4,60(a3)
 80026fc:	00060523          	sb	zero,10(a2)
 8002700:	fef4                	fsw	fa3,124(a3)
 8002702:	00060533          	add	a0,a2,zero
 8002706:	fe9e                	fsw	ft7,124(sp)
 8002708:	0041                	c.nop	16
 800270a:	ff200007          	0xff200007
 800270e:	0012                	c.slli	zero,0x4
 8002710:	fed50007          	0xfed50007
 8002714:	0022                	c.slli	zero,0x8
 8002716:	01040007          	0x1040007
 800271a:	0014                	0x14
 800271c:	01110007          	0x1110007
 8002720:	0024                	addi	s1,sp,8
 8002722:	fe320007          	0xfe320007
 8002726:	0232                	slli	tp,tp,0xc
 8002728:	fefe0007          	0xfefe0007
 800272c:	00070223          	sb	zero,4(a4)
 8002730:	fee6                	fsw	fs9,124(sp)
 8002732:	0301                	addi	t1,t1,0
 8002734:	01520007          	0x1520007
 8002738:	0304                	addi	s1,sp,384
 800273a:	028b0007          	0x28b0007
 800273e:	0314                	addi	a3,sp,384
 8002740:	02200007          	0x2200007
 8002744:	0324                	addi	s1,sp,392
 8002746:	01140007          	0x1140007
 800274a:	0334                	addi	a3,sp,392
 800274c:	012b0007          	0x12b0007
 8002750:	0344                	addi	s1,sp,388
 8002752:	00f60007          	0xf60007
 8002756:	00070533          	add	a0,a4,zero
 800275a:	0145                	addi	sp,sp,17
 800275c:	0524                	addi	s1,sp,648
 800275e:	01660007          	0x1660007
 8002762:	0534                	addi	a3,sp,648
 8002764:	fe560007          	0xfe560007
 8002768:	0031                	c.nop	12
 800276a:	0008                	0x8
 800276c:	010d                	addi	sp,sp,3
 800276e:	0100                	addi	s0,sp,128
 8002770:	0008                	0x8
 8002772:	012a                	slli	sp,sp,0xa
 8002774:	0101                	addi	sp,sp,0
 8002776:	0008                	0x8
 8002778:	01e6                	slli	gp,gp,0x19
 800277a:	0220                	addi	s0,sp,264
 800277c:	0008                	0x8
 800277e:	0192                	slli	gp,gp,0x4
 8002780:	0211                	addi	tp,tp,4
 8002782:	0008                	0x8
 8002784:	02210163          	beq	sp,sp,80027a6 <.L__unnamed_1+0x4de>
 8002788:	0008                	0x8
 800278a:	014a                	slli	sp,sp,0x12
 800278c:	0212                	slli	tp,tp,0x4
 800278e:	0008                	0x8
 8002790:	ff24                	fsw	fs1,120(a4)
 8002792:	0322                	slli	t1,t1,0x8
 8002794:	0008                	0x8
 8002796:	0010ff1b          	0x10ff1b
 800279a:	0009                	c.nop	2
 800279c:	fe90                	fsw	fa2,56(a3)
 800279e:	0020                	addi	s0,sp,8
 80027a0:	0009                	c.nop	2
 80027a2:	fe38                	fsw	fa4,120(a2)
 80027a4:	0030                	addi	a2,sp,8
 80027a6:	0009                	c.nop	2
 80027a8:	0040fe8f          	0x40fe8f
 80027ac:	0009                	c.nop	2
 80027ae:	0111                	addi	sp,sp,4
 80027b0:	0011                	c.nop	4
 80027b2:	0009                	c.nop	2
 80027b4:	0126                	slli	sp,sp,0x9
 80027b6:	0002                	c.slli64	zero
 80027b8:	0009                	c.nop	2
 80027ba:	00fc                	addi	a5,sp,76
 80027bc:	0022                	c.slli	zero,0x8
 80027be:	0009                	c.nop	2
 80027c0:	014e                	slli	sp,sp,0x13
 80027c2:	00090033          	add	zero,s2,zero
 80027c6:	fed2                	fsw	fs4,124(sp)
 80027c8:	0210                	addi	a2,sp,256
 80027ca:	0009                	c.nop	2
 80027cc:	ff4a                	fsw	fs2,188(sp)
 80027ce:	0220                	addi	s0,sp,264
 80027d0:	0009                	c.nop	2
 80027d2:	01c0                	addi	s0,sp,196
 80027d4:	0312                	slli	t1,t1,0x4
 80027d6:	0009                	c.nop	2
 80027d8:	01b2                	slli	gp,gp,0xc
 80027da:	0322                	slli	t1,t1,0x8
 80027dc:	0009                	c.nop	2
 80027de:	00b5                	addi	ra,ra,13
 80027e0:	0332                	slli	t1,t1,0xc
 80027e2:	0009                	c.nop	2
 80027e4:	0129                	addi	sp,sp,10
 80027e6:	0100                	addi	s0,sp,128
 80027e8:	000a                	c.slli	zero,0x2
 80027ea:	010101af          	0x10101af
 80027ee:	000a                	c.slli	zero,0x2
 80027f0:	01ae                	slli	gp,gp,0xb
 80027f2:	0102                	c.slli64	sp
 80027f4:	000a                	c.slli	zero,0x2
 80027f6:	01030127          	0x1030127
 80027fa:	000a                	c.slli	zero,0x2
 80027fc:	fec4                	fsw	fs1,60(a3)
 80027fe:	000a0123          	sb	zero,2(s4)
 8002802:	ff19                	bnez	a4,8002720 <.L__unnamed_1+0x458>
 8002804:	0201                	addi	tp,tp,0
 8002806:	000a                	c.slli	zero,0x2
 8002808:	00ce                	slli	ra,ra,0x13
 800280a:	0211                	addi	tp,tp,4
 800280c:	000a                	c.slli	zero,0x2
 800280e:	00e8                	addi	a0,sp,76
 8002810:	0221                	addi	tp,tp,8
 8002812:	000a                	c.slli	zero,0x2
 8002814:	febe                	fsw	fa5,124(sp)
 8002816:	0202                	c.slli64	tp
 8002818:	000a                	c.slli	zero,0x2
 800281a:	feb9                	bnez	a3,8002778 <.L__unnamed_1+0x4b0>
 800281c:	0501                	addi	a0,a0,0
 800281e:	000a                	c.slli	zero,0x2
 8002820:	fed1                	bnez	a3,80027bc <.L__unnamed_1+0x4f4>
 8002822:	0502                	c.slli64	a0
 8002824:	000a                	c.slli	zero,0x2
 8002826:	fede                	fsw	fs7,124(sp)
 8002828:	0512                	slli	a0,a0,0x4
 800282a:	000a                	c.slli	zero,0x2
 800282c:	ff11                	bnez	a4,8002748 <.L__unnamed_1+0x480>
 800282e:	0000                	unimp
 8002830:	fed7000b          	0xfed7000b
 8002834:	0001                	nop
 8002836:	feb5000b          	0xfeb5000b
 800283a:	0011                	c.nop	4
 800283c:	ff05000b          	0xff05000b
 8002840:	0022                	c.slli	zero,0x8
 8002842:	fe2d000b          	0xfe2d000b
 8002846:	0032                	c.slli	zero,0xc
 8002848:	ff2d000b          	0xff2d000b
 800284c:	0042                	c.slli	zero,0x10
 800284e:	0130000b          	0x130000b
 8002852:	0024                	addi	s1,sp,8
 8002854:	0111000b          	0x111000b
 8002858:	0034                	addi	a3,sp,8
 800285a:	ff2b000b          	0xff2b000b
 800285e:	0122                	slli	sp,sp,0x8
 8002860:	fec7000b          	0xfec7000b
 8002864:	0211                	addi	tp,tp,4
 8002866:	fe95000b          	0xfe95000b
 800286a:	0221                	addi	tp,tp,8
 800286c:	fed1000b          	0xfed1000b
 8002870:	0222                	slli	tp,tp,0x8
 8002872:	ff0b000b          	0xff0b000b
 8002876:	0232                	slli	tp,tp,0xc
 8002878:	0115000b          	0x115000b
 800287c:	0224                	addi	s1,sp,264
 800287e:	0134000b          	0x134000b
 8002882:	0321                	addi	t1,t1,8
 8002884:	01c0000b          	0x1c0000b
 8002888:	0331                	addi	t1,t1,12
 800288a:	024d000b          	0x24d000b
 800288e:	0341                	addi	t1,t1,16
 8002890:	00fd000b          	0xfd000b
 8002894:	000d0103          	lb	sp,0(s10)
 8002898:	feda                	fsw	fs6,124(sp)
 800289a:	0211                	addi	tp,tp,4
 800289c:	000d                	c.nop	3
 800289e:	021a                	slli	tp,tp,0x6
 80028a0:	0222                	slli	tp,tp,0x8
 80028a2:	000d                	c.nop	3
 80028a4:	01b1                	addi	gp,gp,12
 80028a6:	000d0213          	mv	tp,s10
 80028aa:	015c                	addi	a5,sp,132
 80028ac:	0204                	addi	s1,sp,256
 80028ae:	000d                	c.nop	3
 80028b0:	fe9e                	fsw	ft7,124(sp)
 80028b2:	0302                	c.slli64	t1
 80028b4:	000d                	c.nop	3
 80028b6:	0199                	addi	gp,gp,6
 80028b8:	0512                	slli	a0,a0,0x4
 80028ba:	000d                	c.nop	3
 80028bc:	01dd                	addi	gp,gp,23
 80028be:	0522                	slli	a0,a0,0x8
 80028c0:	000d                	c.nop	3
 80028c2:	0101                	addi	sp,sp,0
 80028c4:	000d0513          	mv	a0,s10
 80028c8:	0182                	c.slli64	gp
 80028ca:	0000                	unimp
 80028cc:	000e                	c.slli	zero,0x3
 80028ce:	fe94                	fsw	fa3,56(a3)
 80028d0:	000e0023          	sb	zero,0(t3)
 80028d4:	0100                	addi	s0,sp,128
 80028d6:	0210                	addi	a2,sp,256
 80028d8:	000e                	c.slli	zero,0x3
 80028da:	0124                	addi	s1,sp,136
 80028dc:	0201                	addi	tp,tp,0
 80028de:	000e                	c.slli	zero,0x3
 80028e0:	00e1                	addi	ra,ra,24
 80028e2:	0211                	addi	tp,tp,4
 80028e4:	000e                	c.slli	zero,0x3
 80028e6:	0109                	addi	sp,sp,2
 80028e8:	0202                	c.slli64	tp
 80028ea:	000e                	c.slli	zero,0x3
 80028ec:	0223ff47          	fmsub.d	ft10,ft7,ft2,ft0
 80028f0:	000e                	c.slli	zero,0x3
 80028f2:	fed5                	bnez	a3,80028ae <.L__unnamed_1+0x5e6>
 80028f4:	000e0233          	add	tp,t3,zero
 80028f8:	032000a7          	0x32000a7
 80028fc:	000e                	c.slli	zero,0x3
 80028fe:	00d8                	addi	a4,sp,68
 8002900:	0321                	addi	t1,t1,8
 8002902:	000e                	c.slli	zero,0x3
 8002904:	ff12                	fsw	ft4,188(sp)
 8002906:	0041                	c.nop	16
 8002908:	fe4c000f          	0xfe4c000f
 800290c:	0032                	c.slli	zero,0xc
 800290e:	fef3000f          	0xfef3000f
 8002912:	0042                	c.slli	zero,0x10
 8002914:	fec8000f          	0xfec8000f
 8002918:	000f0013          	mv	zero,t5
 800291c:	fe8a                	fsw	ft2,124(sp)
 800291e:	000f0023          	sb	zero,0(t5)
 8002922:	013a                	slli	sp,sp,0xe
 8002924:	0130                	addi	a2,sp,136
 8002926:	fee0000f          	0xfee0000f
 800292a:	000f0113          	mv	sp,t5
 800292e:	0182                	c.slli64	gp
 8002930:	0230                	addi	a2,sp,264
 8002932:	01fb000f          	0x1fb000f
 8002936:	0240                	addi	s0,sp,260
 8002938:	00f6000f          	0xf6000f
 800293c:	0221                	addi	tp,tp,8
 800293e:	01cf000f          	0x1cf000f
 8002942:	0231                	addi	tp,tp,12
 8002944:	feb3000f          	0xfeb3000f
 8002948:	0242                	slli	tp,tp,0x10
 800294a:	012f000f          	0x12f000f
 800294e:	0302                	c.slli64	t1
 8002950:	0142000f          	0x142000f
 8002954:	0312                	slli	t1,t1,0x4
 8002956:	00f0000f          	fence	unknown,iorw
 800295a:	0322                	slli	t1,t1,0x8
 800295c:	fe95000f          	0xfe95000f
 8002960:	000f0333          	add	t1,t5,zero
 8002964:	ff15                	bnez	a4,80028a0 <.L__unnamed_1+0x5d8>
 8002966:	0314                	addi	a3,sp,384
 8002968:	fedc000f          	0xfedc000f
 800296c:	0324                	addi	s1,sp,392
 800296e:	010e000f          	0x10e000f
 8002972:	0512                	slli	a0,a0,0x4
 8002974:	010b000f          	0x10b000f
 8002978:	0522                	slli	a0,a0,0x8
 800297a:	014c000f          	0x14c000f
 800297e:	00020023          	sb	zero,0(tp) # 0 <_heap_size>
 8002982:	0b03013b          	0xb03013b
 8002986:	0002                	c.slli64	zero
 8002988:	010d                	addi	sp,sp,3
 800298a:	0622                	slli	a2,a2,0x8
 800298c:	0008                	0x8
 800298e:	090300eb          	0x90300eb
 8002992:	0008                	0x8
 8002994:	00de                	slli	ra,ra,0x17
 8002996:	0e20                	addi	s0,sp,792
 8002998:	0008                	0x8
 800299a:	fec4                	fsw	fs1,60(a3)
 800299c:	0031                	c.nop	12
 800299e:	000a                	c.slli	zero,0x2
 80029a0:	0022feb3          	and	t4,t0,sp
 80029a4:	000a                	c.slli	zero,0x2
 80029a6:	ff00                	fsw	fs0,56(a4)
 80029a8:	0432                	slli	s0,s0,0xc
 80029aa:	000a                	c.slli	zero,0x2
 80029ac:	015d                	addi	sp,sp,23
 80029ae:	0632                	slli	a2,a2,0xc
 80029b0:	000a                	c.slli	zero,0x2
 80029b2:	07130123          	sb	a7,98(t1)
 80029b6:	000a                	c.slli	zero,0x2
 80029b8:	0108                	addi	a0,sp,128
 80029ba:	0922                	slli	s2,s2,0x8
 80029bc:	000a                	c.slli	zero,0x2
 80029be:	febe                	fsw	fa5,124(sp)
 80029c0:	0a31                	addi	s4,s4,12
 80029c2:	000a                	c.slli	zero,0x2
 80029c4:	00fe                	slli	ra,ra,0x1f
 80029c6:	0b02                	c.slli64	s6
 80029c8:	000a                	c.slli	zero,0x2
 80029ca:	0126                	slli	sp,sp,0x9
 80029cc:	000a0d33          	add	s10,s4,zero
 80029d0:	0135                	addi	sp,sp,13
 80029d2:	0e31                	addi	t3,t3,12
 80029d4:	000a                	c.slli	zero,0x2
 80029d6:	ff02                	fsw	ft0,188(sp)
 80029d8:	000a0e33          	add	t3,s4,zero
 80029dc:	011a                	slli	sp,sp,0x6
 80029de:	000b0413          	mv	s0,s6
 80029e2:	fea6                	fsw	fs1,124(sp)
 80029e4:	0920                	addi	s0,sp,152
 80029e6:	fee1000b          	0xfee1000b
 80029ea:	0930                	addi	a2,sp,152
 80029ec:	01d9000b          	0x1d9000b
 80029f0:	0931                	addi	s2,s2,12
 80029f2:	00fd000b          	0xfd000b
 80029f6:	000b0f23          	sb	zero,30(s6)
 80029fa:	00b1                	addi	ra,ra,12
 80029fc:	0001                	nop
 80029fe:	000d                	c.nop	3
 8002a00:	011f 0032 000d      	0xd0032011f
 8002a06:	fec9                	bnez	a3,80029a0 <.L__unnamed_1+0x6d8>
 8002a08:	0711                	addi	a4,a4,4
 8002a0a:	000d                	c.nop	3
 8002a0c:	feb5                	bnez	a3,8002988 <.L__unnamed_1+0x6c0>
 8002a0e:	0721                	addi	a4,a4,8
 8002a10:	000d                	c.nop	3
 8002a12:	0104                	addi	s1,sp,128
 8002a14:	0812                	slli	a6,a6,0x4
 8002a16:	000d                	c.nop	3
 8002a18:	01a1                	addi	gp,gp,8
 8002a1a:	0e21                	addi	t3,t3,8
 8002a1c:	000d                	c.nop	3
 8002a1e:	0110                	addi	a2,sp,128
 8002a20:	000e0613          	mv	a2,t3
 8002a24:	0145                	addi	sp,sp,17
 8002a26:	0831                	addi	a6,a6,12
 8002a28:	0011                	c.nop	4
 8002a2a:	00d4                	addi	a3,sp,68
 8002a2c:	0310                	addi	a2,sp,384
 8002a2e:	0014                	0x14
 8002a30:	03310133          	mul	sp,sp,s3
 8002a34:	0014                	0x14
 8002a36:	0630fed3          	fadd.q	ft9,ft1,ft3
 8002a3a:	0014                	0x14
 8002a3c:	0155                	addi	sp,sp,21
 8002a3e:	0b02                	c.slli64	s6
 8002a40:	0014                	0x14
 8002a42:	0130                	addi	a2,sp,136
 8002a44:	0f12                	slli	t5,t5,0x4
 8002a46:	0014                	0x14
 8002a48:	fef4                	fsw	fa3,124(a3)
 8002a4a:	0f32                	slli	t5,t5,0xc
 8002a4c:	0014                	0x14
 8002a4e:	0158                	addi	a4,sp,132
 8002a50:	00140f13          	addi	t5,s0,1
 8002a54:	feb9                	bnez	a3,80029b2 <.L__unnamed_1+0x6ea>
 8002a56:	0401                	addi	s0,s0,0
 8002a58:	0018                	0x18
 8002a5a:	0116                	slli	sp,sp,0x5
 8002a5c:	0512                	slli	a0,a0,0x4
 8002a5e:	0018                	0x18
 8002a60:	0802012b          	0x802012b
 8002a64:	0018                	0x18
 8002a66:	0b01fedb          	0xb01fedb
 8002a6a:	0018                	0x18
 8002a6c:	0b02fe9b          	0xb02fe9b
 8002a70:	0018                	0x18
 8002a72:	00c2                	slli	ra,ra,0x10
 8002a74:	0d11                	addi	s10,s10,4
 8002a76:	0018                	0x18
 8002a78:	0165                	addi	sp,sp,25
 8002a7a:	00180f33          	add	t5,a6,ra
 8002a7e:	01330183          	lb	gp,19(t1)
 8002a82:	001a                	c.slli	zero,0x6
 8002a84:	fec0                	fsw	fs0,60(a3)
 8002a86:	0531                	addi	a0,a0,12
 8002a88:	001a                	c.slli	zero,0x6
 8002a8a:	0198                	addi	a4,sp,192
 8002a8c:	001a0533          	add	a0,s4,ra
 8002a90:	ff24                	fsw	fs1,120(a4)
 8002a92:	0602                	c.slli64	a2
 8002a94:	001a                	c.slli	zero,0x6
 8002a96:	0172                	slli	sp,sp,0x1c
 8002a98:	0912                	slli	s2,s2,0x4
 8002a9a:	001a                	c.slli	zero,0x6
 8002a9c:	00ed                	addi	ra,ra,27
 8002a9e:	0b11                	addi	s6,s6,4
 8002aa0:	001a                	c.slli	zero,0x6
 8002aa2:	0b03ff67          	0xb03ff67
 8002aa6:	001a                	c.slli	zero,0x6
 8002aa8:	0d1200b7          	lui	ra,0xd120
 8002aac:	001a                	c.slli	zero,0x6
 8002aae:	00f4                	addi	a3,sp,76
 8002ab0:	001a0e03          	lb	t3,1(s4)
 8002ab4:	015d                	addi	sp,sp,23
 8002ab6:	001a0f13          	addi	t5,s4,1
 8002aba:	fef1                	bnez	a3,8002a96 <.L__unnamed_1+0x7ce>
 8002abc:	0112                	slli	sp,sp,0x4
 8002abe:	001f 00cf 0132      	0x13200cf001f
 8002ac4:	001f 0121 0501      	0x5010121001f
 8002aca:	001f fef8 0703      	0x703fef8001f
 8002ad0:	001f 014d 0a23      	0xa23014d001f
 8002ad6:	001f 00e9 0d32      	0xd3200e9001f
 8002adc:	001f 0130 0131      	0x1310130001f
 8002ae2:	0026                	c.slli	zero,0x9
 8002ae4:	01ce                	slli	gp,gp,0x13
 8002ae6:	0611                	addi	a2,a2,4
 8002ae8:	0026                	c.slli	zero,0x9
 8002aea:	0730012b          	0x730012b
 8002aee:	0026                	c.slli	zero,0x9
 8002af0:	fece                	fsw	fs3,124(sp)
 8002af2:	0532                	slli	a0,a0,0xc
 8002af4:	01040027          	0x1040027
 8002af8:	00270d23          	sb	sp,26(a4)
 8002afc:	011f 0f23 0027      	0x270f23011f
 8002b02:	0158                	addi	a4,sp,132
 8002b04:	0001                	nop
 8002b06:	002c                	addi	a1,sp,8
 8002b08:	053001b7          	lui	gp,0x5300
 8002b0c:	002c                	addi	a1,sp,8
 8002b0e:	fee8                	fsw	fa0,124(a3)
 8002b10:	002c0533          	add	a0,s8,sp
 8002b14:	0129                	addi	sp,sp,10
 8002b16:	0621                	addi	a2,a2,8
 8002b18:	002c                	addi	a1,sp,8
 8002b1a:	fed8                	fsw	fa4,60(a3)
 8002b1c:	0731                	addi	a4,a4,12
 8002b1e:	002c                	addi	a1,sp,8
 8002b20:	fe94                	fsw	fa3,56(a3)
 8002b22:	0732                	slli	a4,a4,0xc
 8002b24:	002c                	addi	a1,sp,8
 8002b26:	fe41                	bnez	a2,8002abe <.L__unnamed_1+0x7f6>
 8002b28:	002c0733          	add	a4,s8,sp
 8002b2c:	0119                	addi	sp,sp,6
 8002b2e:	0822                	slli	a6,a6,0x8
 8002b30:	002c                	addi	a1,sp,8
 8002b32:	fe8a                	fsw	ft2,124(sp)
 8002b34:	0912                	slli	s2,s2,0x4
 8002b36:	002c                	addi	a1,sp,8
 8002b38:	0142                	slli	sp,sp,0x10
 8002b3a:	0010                	0x10
 8002b3c:	002d                	c.nop	11
 8002b3e:	00cc                	addi	a1,sp,68
 8002b40:	0020                	addi	s0,sp,8
 8002b42:	002d                	c.nop	11
 8002b44:	00c4                	addi	s1,sp,68
 8002b46:	0011                	c.nop	4
 8002b48:	002d                	c.nop	11
 8002b4a:	fe10                	fsw	fa2,56(a2)
 8002b4c:	0521                	addi	a0,a0,8
 8002b4e:	002d                	c.nop	11
 8002b50:	ff2d                	bnez	a4,8002aca <.L__unnamed_1+0x802>
 8002b52:	0512                	slli	a0,a0,0x4
 8002b54:	002d                	c.nop	11
 8002b56:	febe                	fsw	fa5,124(sp)
 8002b58:	0522                	slli	a0,a0,0x8
 8002b5a:	002d                	c.nop	11
 8002b5c:	012c                	addi	a1,sp,136
 8002b5e:	0f11                	addi	t5,t5,4
 8002b60:	002d                	c.nop	11
 8002b62:	00ee                	slli	ra,ra,0x1b
 8002b64:	0011                	c.nop	4
 8002b66:	0032                	c.slli	zero,0xc
 8002b68:	febe                	fsw	fa5,124(sp)
 8002b6a:	00320433          	add	s0,tp,gp
 8002b6e:	0610fee7          	0x610fee7
 8002b72:	0032                	c.slli	zero,0xc
 8002b74:	fecd                	bnez	a3,8002b2e <.L__unnamed_1+0x866>
 8002b76:	00320613          	addi	a2,tp,3 # 3 <_heap_size+0x3>
 8002b7a:	00fd                	addi	ra,ra,31
 8002b7c:	0920                	addi	s0,sp,152
 8002b7e:	0032                	c.slli	zero,0xc
 8002b80:	00b8                	addi	a4,sp,72
 8002b82:	0930                	addi	a2,sp,152
 8002b84:	0032                	c.slli	zero,0xc
 8002b86:	0d310117          	auipc	sp,0xd310
 8002b8a:	0032                	c.slli	zero,0xc
 8002b8c:	feca                	fsw	fs2,124(sp)
 8002b8e:	0520                	addi	s0,sp,648
 8002b90:	01450033          	add	zero,a0,s4
 8002b94:	0731                	addi	a4,a4,12
 8002b96:	012d0033          	add	zero,s10,s2
 8002b9a:	0932                	slli	s2,s2,0xc
 8002b9c:	00c10033          	add	zero,sp,a2
 8002ba0:	00330d33          	add	s10,t1,gp
 8002ba4:	017c                	addi	a5,sp,140
 8002ba6:	0512                	slli	a0,a0,0x4
 8002ba8:	0038                	addi	a4,sp,8
 8002baa:	fe82                	fsw	ft0,124(sp)
 8002bac:	00380523          	sb	gp,10(a6)
 8002bb0:	00f2                	slli	ra,ra,0x1c
 8002bb2:	0b02                	c.slli64	s6
 8002bb4:	0038                	addi	a4,sp,8
 8002bb6:	0141                	addi	sp,sp,16
 8002bb8:	0d10                	addi	a2,sp,656
 8002bba:	0038                	addi	a4,sp,8
 8002bbc:	0196                	slli	gp,gp,0x5
 8002bbe:	0d31                	addi	s10,s10,12
 8002bc0:	0038                	addi	a4,sp,8
 8002bc2:	ff09                	bnez	a4,8002adc <.L__unnamed_1+0x814>
 8002bc4:	00380f33          	add	t5,a6,gp
 8002bc8:	fe86                	fsw	ft1,124(sp)
 8002bca:	0011                	c.nop	4
 8002bcc:	003c                	addi	a5,sp,8
 8002bce:	06310107          	0x6310107
 8002bd2:	003c                	addi	a5,sp,8
 8002bd4:	00d4                	addi	a3,sp,68
 8002bd6:	0a32                	slli	s4,s4,0xc
 8002bd8:	003c                	addi	a5,sp,8
 8002bda:	0e1100f3          	0xe1100f3
 8002bde:	003c                	addi	a5,sp,8
 8002be0:	0101feef          	jal	t4,8021bf0 <_sidata+0x1e820>
 8002be4:	003d                	c.nop	15
 8002be6:	0106                	slli	sp,sp,0x1
 8002be8:	0610                	addi	a2,sp,768
 8002bea:	003d                	c.nop	15
 8002bec:	0112                	slli	sp,sp,0x4
 8002bee:	0b30                	addi	a2,sp,408
 8002bf0:	003d                	c.nop	15
 8002bf2:	0f02016f          	jal	sp,8022ce2 <_sidata+0x1f912>
 8002bf6:	003d                	c.nop	15
 8002bf8:	0184                	addi	s1,sp,192
 8002bfa:	0621                	addi	a2,a2,8
 8002bfc:	feec0043          	fmadd.q	ft0,fs8,fa4,ft11,rne
 8002c00:	0721                	addi	a4,a4,8
 8002c02:	ff250043          	fmadd.q	ft0,fa0,fs2,ft11,rne
 8002c06:	00430f23          	sb	tp,30(t1)
 8002c0a:	05110117          	auipc	sp,0x5110
 8002c0e:	0044                	addi	s1,sp,4
 8002c10:	01dc                	addi	a5,sp,196
 8002c12:	0d10                	addi	a2,sp,656
 8002c14:	0044                	addi	s1,sp,4
 8002c16:	fe9e                	fsw	ft7,124(sp)
 8002c18:	0f02                	c.slli64	t5
 8002c1a:	0044                	addi	s1,sp,4
 8002c1c:	00fd                	addi	ra,ra,31
 8002c1e:	0030                	addi	a2,sp,8
 8002c20:	0046                	c.slli	zero,0x11
 8002c22:	00fc                	addi	a5,sp,76
 8002c24:	0432                	slli	s0,s0,0xc
 8002c26:	0046                	c.slli	zero,0x11
 8002c28:	fe62                	fsw	fs8,60(sp)
 8002c2a:	00460413          	addi	s0,a2,4
 8002c2e:	0130                	addi	a2,sp,136
 8002c30:	0600                	addi	s0,sp,768
 8002c32:	0046                	c.slli	zero,0x11
 8002c34:	fef5                	bnez	a3,8002c30 <.L__unnamed_1+0x968>
 8002c36:	00460713          	addi	a4,a2,4
 8002c3a:	00fe                	slli	ra,ra,0x1f
 8002c3c:	0900                	addi	s0,sp,144
 8002c3e:	0046                	c.slli	zero,0x11
 8002c40:	00ae                	slli	ra,ra,0xb
 8002c42:	0901                	addi	s2,s2,0
 8002c44:	0046                	c.slli	zero,0x11
 8002c46:	0172                	slli	sp,sp,0x1c
 8002c48:	0a31                	addi	s4,s4,12
 8002c4a:	0046                	c.slli	zero,0x11
 8002c4c:	0110                	addi	a2,sp,128
 8002c4e:	00460e33          	add	t3,a2,tp
 8002c52:	0f0200f7          	0xf0200f7
 8002c56:	0046                	c.slli	zero,0x11
 8002c58:	00a4                	addi	s1,sp,72
 8002c5a:	00460f03          	lb	t5,4(a2)
 8002c5e:	feec                	fsw	fa1,124(a3)
 8002c60:	00460f13          	addi	t5,a2,4
 8002c64:	0104                	addi	s1,sp,128
 8002c66:	0001                	nop
 8002c68:	ff250047          	fmsub.q	ft0,fa0,fs2,ft11,rne
 8002c6c:	0302                	c.slli64	t1
 8002c6e:	ff650047          	fmsub.q	ft0,fa0,fs6,ft11,rne
 8002c72:	0312                	slli	t1,t1,0x4
 8002c74:	01850047          	fmsub.s	ft0,fa0,fs8,ft0,rne
 8002c78:	00470413          	addi	s0,a4,4
 8002c7c:	fe82                	fsw	ft0,124(sp)
 8002c7e:	0510                	addi	a2,sp,640
 8002c80:	ff1b0047          	fmsub.q	ft0,fs6,fa7,ft11,rne
 8002c84:	0620                	addi	s0,sp,776
 8002c86:	011a0047          	fmsub.s	ft0,fs4,fa7,ft0,rne
 8002c8a:	0812                	slli	a6,a6,0x4
 8002c8c:	febf0047          	fmsub.q	ft0,ft10,fa1,ft11,rne
 8002c90:	0b02                	c.slli64	s6
 8002c92:	feb90047          	fmsub.q	ft0,fs2,fa1,ft11,rne
 8002c96:	0f32                	slli	t5,t5,0xc
 8002c98:	02090047          	fmsub.d	ft0,fs2,ft0,ft0,rne
 8002c9c:	0002                	c.slli64	zero
 8002c9e:	fe88004b          	fnmsub.q	ft0,fa6,fs0,ft11,rne
 8002ca2:	004b0303          	lb	t1,4(s6)
 8002ca6:	0502ff2b          	0x502ff2b
 8002caa:	fe50004b          	fnmsub.q	ft0,ft0,ft5,ft11,rne
 8002cae:	004b0b03          	lb	s6,4(s6)
 8002cb2:	01c2                	slli	gp,gp,0x10
 8002cb4:	0d12                	slli	s10,s10,0x4
 8002cb6:	00c8004b          	fnmsub.s	ft0,fa6,fa2,ft0,rne
 8002cba:	004b0e13          	addi	t3,s6,4
 8002cbe:	0612012b          	0x612012b
 8002cc2:	004d                	c.nop	19
 8002cc4:	00f2                	slli	ra,ra,0x1c
 8002cc6:	0620                	addi	s0,sp,776
 8002cc8:	0050                	addi	a2,sp,4
 8002cca:	0138                	addi	a4,sp,136
 8002ccc:	0821                	addi	a6,a6,8
 8002cce:	0050                	addi	a2,sp,4
 8002cd0:	0179                	addi	sp,sp,30
 8002cd2:	0f01                	addi	t5,t5,0
 8002cd4:	0050                	addi	a2,sp,4
 8002cd6:	fed5                	bnez	a3,8002c92 <.L__unnamed_1+0x9ca>
 8002cd8:	0300                	addi	s0,sp,384
 8002cda:	01b90057          	0x1b90057
 8002cde:	0330                	addi	a2,sp,392
 8002ce0:	00cd0057          	0xcd0057
 8002ce4:	0331                	addi	t1,t1,12
 8002ce6:	00a10057          	0xa10057
 8002cea:	0420                	addi	s0,sp,520
 8002cec:	011e0057          	0x11e0057
 8002cf0:	0430                	addi	a2,sp,520
 8002cf2:	00eb0057          	0xeb0057
 8002cf6:	0501                	addi	a0,a0,0
 8002cf8:	fec40057          	0xfec40057
 8002cfc:	0630                	addi	a2,sp,776
 8002cfe:	ff270057          	0xff270057
 8002d02:	0700                	addi	s0,sp,896
 8002d04:	01260057          	0x1260057
 8002d08:	0931                	addi	s2,s2,12
 8002d0a:	01210057          	0x1210057
 8002d0e:	0a10                	addi	a2,sp,272
 8002d10:	00be0057          	0xbe0057
 8002d14:	0a11                	addi	s4,s4,4
 8002d16:	014a0057          	0x14a0057
 8002d1a:	0f20                	addi	s0,sp,920
 8002d1c:	01900057          	0x1900057
 8002d20:	0f30                	addi	a2,sp,920
 8002d22:	fe740057          	0xfe740057
 8002d26:	00580013          	addi	zero,a6,5
 8002d2a:	ff06                	fsw	ft1,188(sp)
 8002d2c:	0632                	slli	a2,a2,0xc
 8002d2e:	0058                	addi	a4,sp,4
 8002d30:	071300e3          	beq	t1,a7,8003590 <_sidata+0x1c0>
 8002d34:	0058                	addi	a4,sp,4
 8002d36:	0112                	slli	sp,sp,0x4
 8002d38:	00580a03          	lb	s4,5(a6)
 8002d3c:	00ec                	addi	a1,sp,76
 8002d3e:	00580e13          	addi	t3,a6,5
 8002d42:	ff16                	fsw	ft5,188(sp)
 8002d44:	0f30                	addi	a2,sp,920
 8002d46:	0058                	addi	a4,sp,4
 8002d48:	fef9                	bnez	a3,8002d26 <.L__unnamed_1+0xa5e>
 8002d4a:	0f31                	addi	t5,t5,12
 8002d4c:	0058                	addi	a4,sp,4
 8002d4e:	017c                	addi	a5,sp,140
 8002d50:	00580f23          	sb	t0,30(a6)
 8002d54:	fef1                	bnez	a3,8002d30 <.L__unnamed_1+0xa68>
 8002d56:	005a0303          	lb	t1,5(s4)
 8002d5a:	0154                	addi	a3,sp,132
 8002d5c:	0620                	addi	s0,sp,776
 8002d5e:	005a                	c.slli	zero,0x16
 8002d60:	fecc                	fsw	fa1,60(a3)
 8002d62:	0622                	slli	a2,a2,0x8
 8002d64:	005a                	c.slli	zero,0x16
 8002d66:	ff09                	bnez	a4,8002c80 <.L__unnamed_1+0x9b8>
 8002d68:	0721                	addi	a4,a4,8
 8002d6a:	005a                	c.slli	zero,0x16
 8002d6c:	0149                	addi	sp,sp,18
 8002d6e:	005a0713          	addi	a4,s4,5
 8002d72:	00f8                	addi	a4,sp,76
 8002d74:	005a0d33          	add	s10,s4,t0
 8002d78:	ff1f 0310 005c      	0x5c0310ff1f
 8002d7e:	fea2                	fsw	fs0,124(sp)
 8002d80:	0530                	addi	a2,sp,648
 8002d82:	005c                	addi	a5,sp,4
 8002d84:	0633015b          	0x633015b
 8002d88:	005c                	addi	a5,sp,4
 8002d8a:	0112                	slli	sp,sp,0x4
 8002d8c:	005c0733          	add	a4,s8,t0
 8002d90:	018a                	slli	gp,gp,0x2
 8002d92:	0822                	slli	a6,a6,0x8
 8002d94:	005c                	addi	a5,sp,4
 8002d96:	0312015b          	0x312015b
 8002d9a:	fec30063          	beq	t1,a2,800257a <.L__unnamed_1+0x2b2>
 8002d9e:	00630333          	add	t1,t1,t1
 8002da2:	0631014b          	fnmsub.q	ft2,ft2,ft3,ft0,rne
 8002da6:	ff110063          	beq	sp,a7,8002586 <.L__unnamed_1+0x2be>
 8002daa:	00630723          	sb	t1,14(t1)
 8002dae:	011d                	addi	sp,sp,7
 8002db0:	0b02                	c.slli64	s6
 8002db2:	01b20063          	beq	tp,s11,8002db2 <.L__unnamed_1+0xaea>
 8002db6:	0b12                	slli	s6,s6,0x4
 8002db8:	019d0063          	beq	s10,s9,8002db8 <.L__unnamed_1+0xaf0>
 8002dbc:	00630b03          	lb	s6,6(t1)
 8002dc0:	0106                	slli	sp,sp,0x1
 8002dc2:	0011                	c.nop	4
 8002dc4:	0064                	addi	s1,sp,12
 8002dc6:	011f 0423 0064      	0x640423011f
 8002dcc:	00c6                	slli	ra,ra,0x11
 8002dce:	0810                	addi	a2,sp,16
 8002dd0:	0064                	addi	s1,sp,12
 8002dd2:	0171                	addi	sp,sp,28
 8002dd4:	0820                	addi	s0,sp,24
 8002dd6:	0064                	addi	s1,sp,12
 8002dd8:	fddc                	fsw	fa5,60(a1)
 8002dda:	0920                	addi	s0,sp,152
 8002ddc:	0064                	addi	s1,sp,12
 8002dde:	013a                	slli	sp,sp,0xe
 8002de0:	00640a23          	sb	t1,20(s0)
 8002de4:	0120                	addi	s0,sp,136
 8002de6:	0f20                	addi	s0,sp,920
 8002de8:	0064                	addi	s1,sp,12
 8002dea:	0105                	addi	sp,sp,1
 8002dec:	0020                	addi	s0,sp,8
 8002dee:	0065                	c.nop	25
 8002df0:	fea1                	bnez	a3,8002d48 <.L__unnamed_1+0xa80>
 8002df2:	0122                	slli	sp,sp,0x8
 8002df4:	0065                	c.nop	25
 8002df6:	0413fedb          	0x413fedb
 8002dfa:	0065                	c.nop	25
 8002dfc:	ff0c                	fsw	fa1,56(a4)
 8002dfe:	00650513          	addi	a0,a0,6
 8002e02:	feb2                	fsw	fa2,124(sp)
 8002e04:	00650633          	add	a2,a0,t1
 8002e08:	fdc6                	fsw	fa7,248(sp)
 8002e0a:	00650713          	addi	a4,a0,6
 8002e0e:	08130143          	fmadd.s	ft2,ft6,ft1,ft1,rne
 8002e12:	0065                	c.nop	25
 8002e14:	00ec                	addi	a1,sp,76
 8002e16:	00650d13          	addi	s10,a0,6
 8002e1a:	0168                	addi	a0,sp,140
 8002e1c:	0e32                	slli	t3,t3,0xc
 8002e1e:	0065                	c.nop	25
 8002e20:	015e                	slli	sp,sp,0x17
 8002e22:	00650e33          	add	t3,a0,t1
 8002e26:	013c                	addi	a5,sp,136
 8002e28:	0022                	c.slli	zero,0x8
 8002e2a:	ff050067          	jr	-16(a0)
 8002e2e:	00670433          	add	s0,a4,t1
 8002e32:	0146                	slli	sp,sp,0x11
 8002e34:	0520                	addi	s0,sp,648
 8002e36:	ff780067          	jr	-9(a6)
 8002e3a:	00670503          	lb	a0,6(a4)
 8002e3e:	fefa                	fsw	ft10,124(sp)
 8002e40:	00670713          	addi	a4,a4,6
 8002e44:	fe64                	fsw	fs1,124(a2)
 8002e46:	00670723          	sb	t1,14(a4)
 8002e4a:	0119                	addi	sp,sp,6
 8002e4c:	00670d13          	addi	s10,a4,6
 8002e50:	051101d7          	0x51101d7
 8002e54:	006a                	c.slli	zero,0x1a
 8002e56:	0512fecb          	0x512fecb
 8002e5a:	006a                	c.slli	zero,0x1a
 8002e5c:	ff72                	fsw	ft8,188(sp)
 8002e5e:	006a0613          	addi	a2,s4,6
 8002e62:	ff40                	fsw	fs0,60(a4)
 8002e64:	0700                	addi	s0,sp,896
 8002e66:	006a                	c.slli	zero,0x1a
 8002e68:	0100                	addi	s0,sp,128
 8002e6a:	0b01                	addi	s6,s6,0
 8002e6c:	006a                	c.slli	zero,0x1a
 8002e6e:	0126                	slli	sp,sp,0x9
 8002e70:	0030                	addi	a2,sp,8
 8002e72:	fe53006b          	0xfe53006b
 8002e76:	0110                	addi	a2,sp,128
 8002e78:	feba006b          	0xfeba006b
 8002e7c:	0120                	addi	s0,sp,136
 8002e7e:	feaa006b          	0xfeaa006b
 8002e82:	0310                	addi	a2,sp,384
 8002e84:	fe07006b          	0xfe07006b
 8002e88:	0510                	addi	a2,sp,640
 8002e8a:	010a006b          	0x10a006b
 8002e8e:	0600                	addi	s0,sp,768
 8002e90:	0154006b          	0x154006b
 8002e94:	0610                	addi	a2,sp,768
 8002e96:	fec6006b          	0xfec6006b
 8002e9a:	006b0723          	sb	t1,14(s6)
 8002e9e:	00e2                	slli	ra,ra,0x18
 8002ea0:	0820                	addi	s0,sp,24
 8002ea2:	00d7006b          	0xd7006b
 8002ea6:	0830                	addi	a2,sp,24
 8002ea8:	0153006b          	0x153006b
 8002eac:	0a20                	addi	s0,sp,280
 8002eae:	00e3006b          	0xe3006b
 8002eb2:	0a30                	addi	a2,sp,280
 8002eb4:	0115006b          	0x115006b
 8002eb8:	0a31                	addi	s4,s4,12
 8002eba:	00c2006b          	0xc2006b
 8002ebe:	0d30                	addi	a2,sp,664
 8002ec0:	0122006b          	0x122006b
 8002ec4:	0d02                	c.slli64	s10
 8002ec6:	010a006b          	0x10a006b
 8002eca:	0122                	slli	sp,sp,0x8
 8002ecc:	0071                	c.nop	28
 8002ece:	0112                	slli	sp,sp,0x4
 8002ed0:	0522                	slli	a0,a0,0x8
 8002ed2:	0071                	c.nop	28
 8002ed4:	015c                	addi	a5,sp,132
 8002ed6:	0612                	slli	a2,a2,0x4
 8002ed8:	0071                	c.nop	28
 8002eda:	0134                	addi	a3,sp,136
 8002edc:	00710623          	sb	t2,12(sp) # d112c16 <_sidata+0x510f846>
 8002ee0:	fee1                	bnez	a3,8002eb8 <.L__unnamed_1+0xbf0>
 8002ee2:	00710833          	add	a6,sp,t2
 8002ee6:	0a32ff27          	0xa32ff27
 8002eea:	0071                	c.nop	28
 8002eec:	016a                	slli	sp,sp,0x1a
 8002eee:	0d31                	addi	s10,s10,12
 8002ef0:	0071                	c.nop	28
 8002ef2:	ff3c                	fsw	fa5,120(a4)
 8002ef4:	0000                	unimp
 8002ef6:	0075                	c.nop	29
 8002ef8:	0174                	addi	a3,sp,140
 8002efa:	0300                	addi	s0,sp,384
 8002efc:	0075                	c.nop	29
 8002efe:	00cd                	addi	ra,ra,19
 8002f00:	0310                	addi	a2,sp,384
 8002f02:	0075                	c.nop	29
 8002f04:	0211                	addi	tp,tp,4
 8002f06:	0301                	addi	t1,t1,0
 8002f08:	0075                	c.nop	29
 8002f0a:	012a                	slli	sp,sp,0xa
 8002f0c:	00750423          	sb	t2,8(a0)
 8002f10:	fed0                	fsw	fa2,60(a3)
 8002f12:	0a01                	addi	s4,s4,0
 8002f14:	0075                	c.nop	29
 8002f16:	0a02fe97          	auipc	t4,0xa02f
 8002f1a:	0075                	c.nop	29
 8002f1c:	00f0                	addi	a2,sp,76
 8002f1e:	0b00                	addi	s0,sp,400
 8002f20:	0075                	c.nop	29
 8002f22:	00d9                	addi	ra,ra,22
 8002f24:	0b10                	addi	a2,sp,400
 8002f26:	0075                	c.nop	29
 8002f28:	0b010127          	0xb010127
 8002f2c:	0075                	c.nop	29
 8002f2e:	feba                	fsw	fa4,124(sp)
 8002f30:	0e11                	addi	t3,t3,4
 8002f32:	0075                	c.nop	29
 8002f34:	01a2                	slli	gp,gp,0x8
 8002f36:	0f01                	addi	t5,t5,0
 8002f38:	0075                	c.nop	29
 8002f3a:	00bd                	addi	ra,ra,15
 8002f3c:	0f31                	addi	t5,t5,12
 8002f3e:	0075                	c.nop	29
 8002f40:	010d                	addi	sp,sp,3
 8002f42:	1902                	slli	s2,s2,0x20
 8002f44:	2002018b          	0x2002018b
 8002f48:	011d                	addi	sp,sp,7
 8002f4a:	4902                	lw	s2,0(sp)
 8002f4c:	ff1c                	fsw	fa5,56(a4)
 8002f4e:	1e08                	addi	a0,sp,816
 8002f50:	00c8                	addi	a0,sp,68
 8002f52:	2008                	fld	fa0,0(s0)
 8002f54:	012c                	addi	a1,sp,136
 8002f56:	4608                	lw	a0,8(a2)
 8002f58:	fec9                	bnez	a3,8002ef2 <.L__unnamed_1+0xc2a>
 8002f5a:	050a                	slli	a0,a0,0x2
 8002f5c:	1e0a0167          	jalr	sp,480(s4)
 8002f60:	0149                	addi	sp,sp,18
 8002f62:	200a                	fld	ft0,128(sp)
 8002f64:	0191                	addi	gp,gp,4
 8002f66:	2e0a                	fld	ft8,128(sp)
 8002f68:	0135                	addi	sp,sp,13
 8002f6a:	3f0a                	fld	ft10,160(sp)
 8002f6c:	430a0103          	lb	sp,1072(s4)
 8002f70:	0131                	addi	sp,sp,12
 8002f72:	490a                	lw	s2,128(sp)
 8002f74:	feb4                	fsw	fa3,120(a3)
 8002f76:	4b0a                	lw	s6,128(sp)
 8002f78:	fe25                	bnez	a2,8002ef0 <.L__unnamed_1+0xc28>
 8002f7a:	0143130b          	0x143130b
 8002f7e:	01a8150b          	0x1a8150b
 8002f82:	019c3f0b          	0x19c3f0b
 8002f86:	050d                	addi	a0,a0,3
 8002f88:	150d0117          	auipc	sp,0x150d0
 8002f8c:	ff31                	bnez	a4,8002ee8 <.L__unnamed_1+0xc20>
 8002f8e:	170d                	addi	a4,a4,-29
 8002f90:	010a                	slli	sp,sp,0x2
 8002f92:	190d                	addi	s2,s2,-29
 8002f94:	00ea                	slli	ra,ra,0x1a
 8002f96:	240d                	jal	80031b8 <.L__unnamed_1+0xef0>
 8002f98:	0181                	addi	gp,gp,0
 8002f9a:	4b0d                	li	s6,3
 8002f9c:	0136                	slli	sp,sp,0xd
 8002f9e:	150e                	slli	a0,a0,0x23
 8002fa0:	011a                	slli	sp,sp,0x6
 8002fa2:	1e11                	addi	t3,t3,-28
 8002fa4:	fedc                	fsw	fa5,60(a3)
 8002fa6:	3f11                	jal	8002eba <.L__unnamed_1+0xbf2>
 8002fa8:	ff11                	bnez	a4,8002ec4 <.L__unnamed_1+0xbfc>
 8002faa:	0414                	addi	a3,sp,512
 8002fac:	ff08                	fsw	fa0,56(a4)
 8002fae:	1514                	addi	a3,sp,672
 8002fb0:	0268                	addi	a0,sp,268
 8002fb2:	2014                	fld	fa3,0(s0)
 8002fb4:	01a0                	addi	s0,sp,200
 8002fb6:	1318                	addi	a4,sp,416
 8002fb8:	0252                	slli	tp,tp,0x14
 8002fba:	1518                	addi	a4,sp,672
 8002fbc:	4618feef          	jal	t4,8092c1c <_sidata+0x8f84c>
 8002fc0:	fefc                	fsw	fa5,124(a3)
 8002fc2:	4b18                	lw	a4,16(a4)
 8002fc4:	0165                	addi	sp,sp,25
 8002fc6:	051a                	slli	a0,a0,0x6
 8002fc8:	0159                	addi	sp,sp,22
 8002fca:	181a                	slli	a6,a6,0x26
 8002fcc:	391a01fb          	0x391a01fb
 8002fd0:	491aff2f          	0x491aff2f
 8002fd4:	4b1a01b7          	lui	gp,0x4b1a0
 8002fd8:	0124                	addi	s1,sp,136
 8002fda:	041f fe11 201f      	0x201ffe11041f
 8002fe0:	0130                	addi	a2,sp,136
 8002fe2:	311f 0270 2e26      	0x2e260270311f
 8002fe8:	011e                	slli	sp,sp,0x7
 8002fea:	01382027          	fsw	fs3,0(a6)
 8002fee:	00f03f27          	fsd	fa5,30(zero) # 1e <_heap_size+0x1e>
 8002ff2:	feff4927          	fsq	fa5,-14(t5)
 8002ff6:	fe324b27          	fsq	ft3,-10(tp) # fffffff6 <_stack_start+0xdfff7ff6>
 8002ffa:	0f2c                	addi	a1,sp,920
 8002ffc:	152c00e7          	jalr	338(s8)
 8003000:	182cfef3          	csrrci	t4,0x182,25
 8003004:	01d1                	addi	gp,gp,20
 8003006:	2e2c                	fld	fa1,88(a2)
 8003008:	ff1e                	fsw	ft7,188(sp)
 800300a:	392c                	fld	fa1,112(a0)
 800300c:	ff06                	fsw	ft1,188(sp)
 800300e:	3d2c                	fld	fa1,120(a0)
 8003010:	01b8                	addi	a4,sp,200
 8003012:	492c                	lw	a1,80(a0)
 8003014:	febc                	fsw	fa5,120(a3)
 8003016:	4b2c                	lw	a1,80(a4)
 8003018:	ff02                	fsw	ft0,188(sp)
 800301a:	042d                	addi	s0,s0,11
 800301c:	fecd                	bnez	a3,8002fd6 <.L__unnamed_1+0xd0e>
 800301e:	0f2d                	addi	t5,t5,11
 8003020:	01d1                	addi	gp,gp,20
 8003022:	462d                	li	a2,11
 8003024:	4b2d01db          	0x4b2d01db
 8003028:	012c                	addi	a1,sp,136
 800302a:	1e32                	slli	t3,t3,0x2c
 800302c:	ff0c                	fsw	fa1,56(a4)
 800302e:	3f32                	fld	ft10,296(sp)
 8003030:	01cd                	addi	gp,gp,19
 8003032:	4932                	lw	s2,12(sp)
 8003034:	0139                	addi	sp,sp,14
 8003036:	feaf0f33          	0xfeaf0f33
 800303a:	01201333          	sll	t1,zero,s2
 800303e:	01331e33          	sll	t3,t1,s3
 8003042:	0438                	addi	a4,sp,520
 8003044:	13380143          	fmadd.d	ft2,fa6,fs3,ft2,rne
 8003048:	fe49                	bnez	a2,8002fe2 <.L__unnamed_1+0xd1a>
 800304a:	1538                	addi	a4,sp,680
 800304c:	0199                	addi	gp,gp,6
 800304e:	1738                	addi	a4,sp,936
 8003050:	fee8                	fsw	fa0,124(a3)
 8003052:	4638                	lw	a4,72(a2)
 8003054:	0145                	addi	sp,sp,17
 8003056:	053c                	addi	a5,sp,648
 8003058:	fe65                	bnez	a2,8003050 <.L__unnamed_1+0xd88>
 800305a:	1e3c                	addi	a5,sp,824
 800305c:	193d0167          	jalr	sp,403(s10)
 8003060:	0120                	addi	s0,sp,136
 8003062:	273d                	jal	8003790 <_sidata+0x3c0>
 8003064:	017e                	slli	sp,sp,0x1f
 8003066:	4b3d                	li	s6,15
 8003068:	0f43feb7          	lui	t4,0xf43f
 800306c:	ff19                	bnez	a4,8002f8a <.L__unnamed_1+0xcc2>
 800306e:	01bd1e43          	fmadd.s	ft8,fs10,fs11,ft0,rtz
 8003072:	01954643          	fmadd.s	fa2,fa0,fs9,ft0,rmm
 8003076:	0444                	addi	s1,sp,516
 8003078:	00dd                	addi	ra,ra,23
 800307a:	1344                	addi	s1,sp,420
 800307c:	0125                	addi	sp,sp,9
 800307e:	1744                	addi	s1,sp,932
 8003080:	3c440143          	0x3c440143
 8003084:	00e0                	addi	s0,sp,76
 8003086:	0f46                	slli	t5,t5,0x11
 8003088:	015c                	addi	a5,sp,132
 800308a:	1946                	slli	s2,s2,0x31
 800308c:	ff25                	bnez	a4,8003004 <.L__unnamed_1+0xd3c>
 800308e:	2046                	fld	ft0,80(sp)
 8003090:	00f8                	addi	a4,sp,76
 8003092:	2346                	fld	ft6,80(sp)
 8003094:	2446014f          	0x2446014f
 8003098:	016d                	addi	sp,sp,27
 800309a:	2746                	fld	fa4,80(sp)
 800309c:	00e9                	addi	ra,ra,26
 800309e:	3846                	fld	fa6,112(sp)
 80030a0:	3d4600ef          	jal	ra,8063474 <_sidata+0x600a4>
 80030a4:	0192                	slli	gp,gp,0x4
 80030a6:	4b46                	lw	s6,80(sp)
 80030a8:	034700cb          	fnmsub.d	ft1,fa4,fs4,ft0,rne
 80030ac:	016e                	slli	sp,sp,0x1b
 80030ae:	01910f47          	fmsub.s	ft10,ft2,fs9,ft0,rne
 80030b2:	01b11547          	fmsub.s	fa0,ft2,fs11,ft0,rtz
 80030b6:	ff211747          	fmsub.q	fa4,ft2,fs2,ft11,rtz
 80030ba:	ff072e47          	fmsub.q	ft8,fa4,fa6,ft11,rdn
 80030be:	014b3147          	fmsub.s	ft2,fs6,fs4,ft0,rup
 80030c2:	00eb3f47          	fmsub.s	ft10,fs6,fa4,ft0,rup
 80030c6:	fd47054b          	0xfd47054b
 80030ca:	01a3204b          	fnmsub.s	ft0,ft6,fs10,ft0,rdn
 80030ce:	00db314b          	fnmsub.s	ft2,fs6,fa3,ft0,rup
 80030d2:	00f0394b          	fnmsub.s	fs2,ft0,fa5,ft0,rup
 80030d6:	0105434b          	fnmsub.s	ft6,fa0,fa6,ft0,rmm
 80030da:	2e4d                	jal	800348c <_sidata+0xbc>
 80030dc:	fe4c                	fsw	fa1,60(a2)
 80030de:	2e50                	fld	fa2,152(a2)
 80030e0:	3950015b          	0x3950015b
 80030e4:	1e57fde7          	0x1e57fde7
 80030e8:	018d                	addi	gp,gp,3
 80030ea:	025b2e57          	0x25b2e57
 80030ee:	01773f57          	0x1773f57
 80030f2:	011b4357          	0x11b4357
 80030f6:	0458                	addi	a4,sp,516
 80030f8:	01b8                	addi	a4,sp,200
 80030fa:	0558                	addi	a4,sp,644
 80030fc:	00ce                	slli	ra,ra,0x13
 80030fe:	1e58                	addi	a4,sp,820
 8003100:	00f2                	slli	ra,ra,0x1c
 8003102:	3158                	fld	fa4,160(a0)
 8003104:	01c8                	addi	a0,sp,196
 8003106:	3958                	fld	fa4,176(a0)
 8003108:	00e8                	addi	a0,sp,76
 800310a:	3c58                	fld	fa4,184(s0)
 800310c:	01b9                	addi	gp,gp,14
 800310e:	055a                	slli	a0,a0,0x16
 8003110:	155a00ef          	jal	ra,80a3a64 <_sidata+0xa0694>
 8003114:	0164                	addi	s1,sp,140
 8003116:	395a                	fld	fs2,432(sp)
 8003118:	fec5                	bnez	a3,80030d0 <.L__unnamed_1+0xe08>
 800311a:	435a                	lw	t1,148(sp)
 800311c:	045c016f          	jal	sp,80c3960 <_sidata+0xc0590>
 8003120:	0122                	slli	sp,sp,0x8
 8003122:	135c                	addi	a5,sp,420
 8003124:	feda                	fsw	fs6,124(sp)
 8003126:	195c                	addi	a5,sp,180
 8003128:	fe9f 3f5c 0189      	0x1893f5cfe9f
 800312e:	465c                	lw	a5,12(a2)
 8003130:	01ac                	addi	a1,sp,200
 8003132:	ff011363          	bne	sp,a6,8002918 <.L__unnamed_1+0x650>
 8003136:	01581563          	bne	a6,s5,8003140 <.L__unnamed_1+0xe78>
 800313a:	01881763          	bne	a6,s8,8003148 <.L__unnamed_1+0xe80>
 800313e:	fecf2063          	0xfecf2063
 8003142:	fea92e63          	0xfea92e63
 8003146:	feaf4363          	blt	t5,a0,800292c <.L__unnamed_1+0x664>
 800314a:	01564663          	blt	a2,s5,8003156 <.L__unnamed_1+0xe8e>
 800314e:	0364                	addi	s1,sp,396
 8003150:	0564fef3          	csrrci	t4,0x56,9
 8003154:	0172                	slli	sp,sp,0x1c
 8003156:	0f64                	addi	s1,sp,924
 8003158:	4364017b          	0x4364017b
 800315c:	0218                	addi	a4,sp,256
 800315e:	4664                	lw	s1,76(a2)
 8003160:	ff34                	fsw	fa3,120(a4)
 8003162:	0465                	addi	s0,s0,25
 8003164:	0241                	addi	tp,tp,16
 8003166:	1365                	addi	t1,t1,-7
 8003168:	fe50                	fsw	fa2,60(a2)
 800316a:	1e65                	addi	t3,t3,-7
 800316c:	fec9                	bnez	a3,8003106 <.L__unnamed_1+0xe3e>
 800316e:	3165                	jal	8002e16 <.L__unnamed_1+0xb4e>
 8003170:	fec5                	bnez	a3,8003128 <.L__unnamed_1+0xe60>
 8003172:	3965                	jal	8002e2a <.L__unnamed_1+0xb62>
 8003174:	0140                	addi	s0,sp,132
 8003176:	4665                	li	a2,25
 8003178:	0129                	addi	sp,sp,10
 800317a:	4b65                	li	s6,25
 800317c:	0148                	addi	a0,sp,132
 800317e:	01421367          	0x1421367
 8003182:	01df2467          	0x1df2467
 8003186:	ff272767          	0xff272767
 800318a:	00f13967          	0xf13967
 800318e:	01634967          	0x1634967
 8003192:	046a                	slli	s0,s0,0x1a
 8003194:	0150                	addi	a2,sp,132
 8003196:	136a                	slli	t1,t1,0x3a
 8003198:	ff08                	fsw	fa0,56(a4)
 800319a:	156a                	slli	a0,a0,0x3a
 800319c:	00f1                	addi	ra,ra,28
 800319e:	176a                	slli	a4,a4,0x3a
 80031a0:	02ac                	addi	a1,sp,328
 80031a2:	ff150f6b          	0xff150f6b
 80031a6:	021a276b          	0x21a276b
 80031aa:	020e3d6b          	0x20e3d6b
 80031ae:	0151466b          	0x151466b
 80031b2:	ff0e476b          	0xff0e476b
 80031b6:	017b496b          	0x17b496b
 80031ba:	1e71                	addi	t3,t3,-4
 80031bc:	0146                	slli	sp,sp,0x11
 80031be:	2071                	jal	800324a <.L__unnamed_1+0xf82>
 80031c0:	01d0                	addi	a2,sp,196
 80031c2:	3171                	jal	8002e4e <.L__unnamed_1+0xb86>
 80031c4:	016a                	slli	sp,sp,0x1a
 80031c6:	4371                	li	t1,28
 80031c8:	ff02                	fsw	ft0,188(sp)
 80031ca:	1375                	addi	t1,t1,-3
 80031cc:	fe5c                	fsw	fa5,60(a2)
 80031ce:	1575                	addi	a0,a0,-3
 80031d0:	187500c3          	fmadd.s	ft1,fa0,ft7,ft3,rne
 80031d4:	19750187          	0x19750187
 80031d8:	1e7501db          	0x1e7501db
 80031dc:	20750147          	fmsub.s	ft2,fa0,ft7,ft4,rne
 80031e0:	0190                	addi	a2,sp,192
 80031e2:	2775                	jal	800398e <_sidata+0x5be>
 80031e4:	ff05                	bnez	a4,800311c <.L__unnamed_1+0xe54>
 80031e6:	3f75                	jal	80031a2 <.L__unnamed_1+0xeda>
 80031e8:	01fe                	slli	gp,gp,0x1f
 80031ea:	4b75                	li	s6,29
 80031ec:	015c                	addi	a5,sp,132
 80031ee:	feed0603          	lb	a2,-18(s10)
 80031f2:	0104                	addi	s1,sp,128
 80031f4:	fe5f 0504 fede      	0xfede0504fe5f
 80031fa:	0704                	addi	s1,sp,896
 80031fc:	02d8                	addi	a4,sp,324
 80031fe:	0804                	addi	s1,sp,16
 8003200:	0291                	addi	t0,t0,4
 8003202:	0005                	c.nop	1
 8003204:	0205                	addi	tp,tp,1
 8003206:	0205                	addi	tp,tp,1
 8003208:	0305fef7          	0x305fef7
 800320c:	fe16                	fsw	ft5,60(sp)
 800320e:	0605                	addi	a2,a2,1
 8003210:	010fff3f 040f0375 	0x40f0375010fff3f
 8003218:	0229                	addi	tp,tp,10
 800321a:	fe41060f          	0xfe41060f
 800321e:	fef1090f          	0xfef1090f
 8003222:	fe7e0213          	addi	tp,t3,-25
 8003226:	02b70313          	addi	t1,a4,43
 800322a:	fe7d0413          	addi	s0,s10,-25
 800322e:	03830613          	addi	a2,t1,56
 8003232:	033b0913          	addi	s2,s6,51
 8003236:	0015                	c.nop	5
 8003238:	fe91                	bnez	a3,8003154 <.L__unnamed_1+0xe8c>
 800323a:	0215                	addi	tp,tp,5
 800323c:	fe5e                	fsw	fs7,60(sp)
 800323e:	0515                	addi	a0,a0,5
 8003240:	023a                	slli	tp,tp,0xe
 8003242:	0615                	addi	a2,a2,5
 8003244:	0815fe97          	auipc	t4,0x815f
 8003248:	fe91                	bnez	a3,8003164 <.L__unnamed_1+0xe9c>
 800324a:	feb90017          	auipc	zero,0xfeb90
 800324e:	011e0117          	auipc	sp,0x11e0
 8003252:	02820417          	auipc	s0,0x2820
 8003256:	01bd0917          	auipc	s2,0x1bd0
 800325a:	0218                	addi	a4,sp,256
 800325c:	02b9                	addi	t0,t0,14
 800325e:	0719                	addi	a4,a4,6
 8003260:	0819ff07          	0x819ff07
 8003264:	0919febf 021e0147 	0x21e01470919febf
 800326c:	035a                	slli	t1,t1,0x16
 800326e:	031e                	slli	t1,t1,0x7
 8003270:	ff31                	bnez	a4,80031cc <.L__unnamed_1+0xf04>
 8003272:	041e                	slli	s0,s0,0x7
 8003274:	fe6a                	fsw	fs10,60(sp)
 8003276:	051e                	slli	a0,a0,0x7
 8003278:	081e01fb          	0x81e01fb
 800327c:	fe4a                	fsw	fs2,60(sp)
 800327e:	091e                	slli	s2,s2,0x7
 8003280:	0130                	addi	a2,sp,136
 8003282:	0120                	addi	s0,sp,136
 8003284:	febe                	fsw	fa5,124(sp)
 8003286:	0220                	addi	s0,sp,264
 8003288:	032e                	slli	t1,t1,0xb
 800328a:	0320                	addi	s0,sp,392
 800328c:	fee1                	bnez	a3,8003264 <.L__unnamed_1+0xf9c>
 800328e:	0420                	addi	s0,sp,520
 8003290:	028d                	addi	t0,t0,3
 8003292:	0520                	addi	s0,sp,648
 8003294:	fe4d                	bnez	a2,800324e <.L__unnamed_1+0xf86>
 8003296:	0620                	addi	s0,sp,776
 8003298:	fef1                	bnez	a3,8003274 <.L__unnamed_1+0xfac>
 800329a:	0720                	addi	s0,sp,904
 800329c:	fdb6                	fsw	fa3,248(sp)
 800329e:	0820                	addi	s0,sp,24
 80032a0:	0723013f 0724020c 	0x724020c0723013f
 80032a8:	fedf 0027 0148      	0x1480027fedf
 80032ae:	ff130327          	0xff130327
 80032b2:	02ae0427          	0x2ae0427
 80032b6:	fda70727          	0xfda70727
 80032ba:	022e                	slli	tp,tp,0xb
 80032bc:	032efee7          	0x32efee7
 80032c0:	024d                	addi	tp,tp,19
 80032c2:	052e                	slli	a0,a0,0xb
 80032c4:	0270                	addi	a2,sp,268
 80032c6:	082e                	slli	a6,a6,0xb
 80032c8:	fe9a                	fsw	ft6,124(sp)
 80032ca:	092e                	slli	s2,s2,0xb
 80032cc:	00ec                	addi	a1,sp,76
 80032ce:	0231                	addi	tp,tp,12
 80032d0:	02b6                	slli	t0,t0,0xd
 80032d2:	0831                	addi	a6,a6,12
 80032d4:	fe4a                	fsw	fs2,60(sp)
 80032d6:	0931                	addi	s2,s2,12
 80032d8:	0102                	c.slli64	sp
 80032da:	0738                	addi	a4,sp,904
 80032dc:	011e                	slli	sp,sp,0x7
 80032de:	0039                	c.nop	14
 80032e0:	0239032b          	0x239032b
 80032e4:	0739fe43          	fmadd.q	ft8,fs3,fs3,ft0
 80032e8:	0119                	addi	sp,sp,6
 80032ea:	003c                	addi	a5,sp,8
 80032ec:	fece                	fsw	fs3,124(sp)
 80032ee:	043c                	addi	a5,sp,520
 80032f0:	0128                	addi	a0,sp,136
 80032f2:	093c                	addi	a5,sp,152
 80032f4:	043d023b          	0x43d023b
 80032f8:	093dfedb          	0x93dfedb
 80032fc:	fea8                	fsw	fa0,120(a3)
 80032fe:	fec2013f 02d4043f 	0x2d4043ffec2013f
 8003306:	0281053f fefd063f 	0xfefd063f0281053f
 800330e:	fe7a083f ff1c0043 	0xff1c0043fe7a083f
 8003316:	00e30343          	fmadd.s	ft6,ft6,fa4,ft0,rne
 800331a:	02890543          	fmadd.d	fa0,fs2,fs0,ft0,rne
 800331e:	01680643          	fmadd.s	fa2,fa6,fs6,ft0,rne
 8003322:	04d60843          	0x4d60843
 8003326:	0146                	slli	sp,sp,0x11
 8003328:	0346fee7          	0x346fee7
 800332c:	0146                	slli	sp,sp,0x11
 800332e:	fe5f0447          	fmsub.q	fs0,ft10,ft5,ft11,rne
 8003332:	0249                	addi	tp,tp,18
 8003334:	03490147          	fmsub.d	ft2,fs2,fs4,ft0,rne
 8003338:	fddf 0449 01c0      	0x1c00449fddf
 800333e:	0949                	addi	s2,s2,18
 8003340:	0141                	addi	sp,sp,16
 8003342:	028f014b          	fnmsub.d	ft2,ft10,fs0,ft0,rne
 8003346:	ff16024b          	fnmsub.q	ft4,fa2,fa7,ft11,rne
 800334a:	ff0e034b          	fnmsub.q	ft6,ft8,fa6,ft11,rne
 800334e:	02d1064b          	fnmsub.d	fa2,ft2,fa3,ft0,rne
 8003352:	fe0b074b          	fnmsub.q	fa4,fs6,ft0,ft11,rne
 8003356:	fe97084b          	fnmsub.q	fa6,fa4,fs1,ft11,rne
 800335a:	00db094b          	fnmsub.s	fs2,fs6,fa3,ft0,rne
 800335e:	0451                	addi	s0,s0,20

08003360 <str.0.111>:
 8003360:	7461                	lui	s0,0xffff8
 8003362:	6574                	flw	fa3,76(a0)
 8003364:	706d                	c.lui	zero,0xffffb
 8003366:	2074                	fld	fa3,192(s0)
 8003368:	6f74                	flw	fa3,92(a4)
 800336a:	6420                	flw	fs0,72(s0)
 800336c:	7669                	lui	a2,0xffffa
 800336e:	6469                	lui	s0,0x1a
 8003370:	2065                	jal	8003418 <_sidata+0x48>
 8003372:	7962                	flw	fs2,56(sp)
 8003374:	7a20                	flw	fs0,112(a2)
 8003376:	7265                	lui	tp,0xffff9
 8003378:	          	jal	t5,8058afc <_sidata+0x5572c>

08003379 <.Lanon.a3253abe55c45a025617bb90117944e7.81>:
 8003379:	455f 7478 6e65      	0x6e657478455f
 800337f:	6c626973          	csrrsi	s2,0x6c6,4
 8003383:	                	li	t5,25

08003384 <.Lanon.a3253abe55c45a025617bb90117944e7.82>:
 8003384:	7265764f          	fnmadd.d	fa2,fa0,ft6,fa4
 8003388:	7572                	flw	fa0,60(sp)
 800338a:	                	lw	a2,216(sp)

0800338b <.Lanon.a3253abe55c45a025617bb90117944e7.92>:
 800338b:	7246                	flw	ft4,112(sp)
 800338d:	6d61                	lui	s10,0x18
 800338f:	6e69                	lui	t3,0x1a
 8003391:	          	0x696f4e67

08003392 <.Lanon.a3253abe55c45a025617bb90117944e7.91>:
 8003392:	6f4e                	flw	ft10,208(sp)
 8003394:	7369                	lui	t1,0xffffa
 8003396:	                	c.li	zero,-7

08003397 <.Lanon.a3253abe55c45a025617bb90117944e7.90>:
 8003397:	6150                	flw	fa2,4(a0)
 8003399:	6972                	flw	fs2,28(sp)
 800339b:	7974                	flw	fa3,116(a0)
 800339d:	0000                	unimp
	...

080033a0 <__INTERRUPTS>:
 80033a0:	1f00                	addi	s0,sp,944
 80033a2:	0800                	addi	s0,sp,16
 80033a4:	1f00                	addi	s0,sp,944
 80033a6:	0800                	addi	s0,sp,16
 80033a8:	0000                	unimp
 80033aa:	0000                	unimp
 80033ac:	1f00                	addi	s0,sp,944
 80033ae:	0800                	addi	s0,sp,16
 80033b0:	1f00                	addi	s0,sp,944
 80033b2:	0800                	addi	s0,sp,16
 80033b4:	1f00                	addi	s0,sp,944
 80033b6:	0800                	addi	s0,sp,16
 80033b8:	0000                	unimp
 80033ba:	0000                	unimp
 80033bc:	1f00                	addi	s0,sp,944
 80033be:	0800                	addi	s0,sp,16
 80033c0:	1f00                	addi	s0,sp,944
 80033c2:	0800                	addi	s0,sp,16
 80033c4:	1f00                	addi	s0,sp,944
 80033c6:	0800                	addi	s0,sp,16
 80033c8:	0000                	unimp
 80033ca:	0000                	unimp
 80033cc:	1f00                	addi	s0,sp,944
 80033ce:	0800                	addi	s0,sp,16

Disassembly of section .bss:

20000000 <_sbss>:
	...

20000001 <DEVICE_PERIPHERALS>:
20000001:	0000                	unimp
	...

Disassembly of section .stack:

20000004 <_estack>:
	...

Disassembly of section .eh_frame:

00000000 <.eh_frame>:
   0:	0010                	0x10
   2:	0000                	unimp
   4:	0000                	unimp
   6:	0000                	unimp
   8:	7a01                	lui	s4,0xfffe0
   a:	0052                	c.slli	zero,0x14
   c:	7c01                	lui	s8,0xfffe0
   e:	0101                	addi	sp,sp,0
  10:	00020c1b          	0x20c1b
  14:	0010                	0x10
  16:	0000                	unimp
  18:	0018                	0x18
  1a:	0000                	unimp
  1c:	01be                	slli	gp,gp,0xf
  1e:	0800                	addi	s0,sp,16
  20:	0002                	c.slli64	zero
  22:	0000                	unimp
  24:	0000                	unimp
  26:	0000                	unimp
  28:	0034                	addi	a3,sp,8
  2a:	0000                	unimp
  2c:	002c                	addi	a1,sp,8
  2e:	0000                	unimp
  30:	01ac                	addi	a1,sp,200
  32:	0800                	addi	s0,sp,16
  34:	1c64                	addi	s1,sp,572
  36:	0000                	unimp
  38:	4400                	lw	s0,8(s0)
  3a:	f00e                	fsw	ft3,32(sp)
  3c:	0181740f          	0x181740f
  40:	0288                	addi	a0,sp,320
  42:	0389                	addi	t2,t2,2
  44:	0492                	slli	s1,s1,0x4
  46:	06940593          	addi	a1,s0,105 # 1a069 <_hart_stack_size+0x19869>
  4a:	0795                	addi	a5,a5,5
  4c:	0896                	slli	a7,a7,0x5
  4e:	0a980997          	auipc	s3,0xa980
  52:	0b99                	addi	s7,s7,6
  54:	0c9a                	slli	s9,s9,0x6
  56:	0e4a0d9b          	0xe4a0d9b
  5a:	f2a0                	fsw	fs0,96(a3)
  5c:	0001                	nop
  5e:	0000                	unimp
  60:	0014                	0x14
  62:	0000                	unimp
  64:	0064                	addi	s1,sp,12
  66:	0000                	unimp
  68:	1dd8                	addi	a4,sp,756
  6a:	0800                	addi	s0,sp,16
  6c:	000e                	c.slli	zero,0x3
  6e:	0000                	unimp
  70:	4200                	lw	s0,0(a2)
  72:	100e                	c.slli	zero,0x23
  74:	8142                	mv	sp,a6
  76:	0001                	nop
  78:	0014                	0x14
  7a:	0000                	unimp
  7c:	007c                	addi	a5,sp,12
  7e:	0000                	unimp
  80:	1dce                	slli	s11,s11,0x33
  82:	0800                	addi	s0,sp,16
  84:	000e                	c.slli	zero,0x3
  86:	0000                	unimp
  88:	4200                	lw	s0,0(a2)
  8a:	100e                	c.slli	zero,0x23
  8c:	8142                	mv	sp,a6
  8e:	0001                	nop
  90:	0014                	0x14
  92:	0000                	unimp
  94:	0094                	addi	a3,sp,64
  96:	0000                	unimp
  98:	1dc4                	addi	s1,sp,756
  9a:	0800                	addi	s0,sp,16
  9c:	000e                	c.slli	zero,0x3
  9e:	0000                	unimp
  a0:	4200                	lw	s0,0(a2)
  a2:	100e                	c.slli	zero,0x23
  a4:	8142                	mv	sp,a6
  a6:	0001                	nop
  a8:	0014                	0x14
  aa:	0000                	unimp
  ac:	00ac                	addi	a1,sp,72
  ae:	0000                	unimp
  b0:	1dba                	slli	s11,s11,0x2e
  b2:	0800                	addi	s0,sp,16
  b4:	000e                	c.slli	zero,0x3
  b6:	0000                	unimp
  b8:	4200                	lw	s0,0(a2)
  ba:	100e                	c.slli	zero,0x23
  bc:	8142                	mv	sp,a6
  be:	0001                	nop
  c0:	0014                	0x14
  c2:	0000                	unimp
  c4:	00c4                	addi	s1,sp,68
  c6:	0000                	unimp
  c8:	1db0                	addi	a2,sp,760
  ca:	0800                	addi	s0,sp,16
  cc:	000e                	c.slli	zero,0x3
  ce:	0000                	unimp
  d0:	4200                	lw	s0,0(a2)
  d2:	100e                	c.slli	zero,0x23
  d4:	8142                	mv	sp,a6
  d6:	0001                	nop
  d8:	0010                	0x10
  da:	0000                	unimp
  dc:	00dc                	addi	a5,sp,68
  de:	0000                	unimp
  e0:	1da6                	slli	s11,s11,0x29
  e2:	0800                	addi	s0,sp,16
  e4:	0072                	c.slli	zero,0x1c
  e6:	0000                	unimp
  e8:	0000                	unimp
  ea:	0000                	unimp
  ec:	0010                	0x10
  ee:	0000                	unimp
  f0:	00f0                	addi	a2,sp,76
  f2:	0000                	unimp
  f4:	1e04                	addi	s1,sp,816
  f6:	0800                	addi	s0,sp,16
  f8:	0006                	c.slli	zero,0x1
  fa:	0000                	unimp
  fc:	0000                	unimp
  fe:	0000                	unimp
 100:	0014                	0x14
 102:	0000                	unimp
 104:	0104                	addi	s1,sp,128
 106:	0000                	unimp
 108:	ff82                	fsw	ft0,252(sp)
 10a:	006e07ff          	radd16	a5,t3,t1
 10e:	0000                	unimp
 110:	4200                	lw	s0,0(a2)
 112:	100e                	c.slli	zero,0x23
 114:	8142                	mv	sp,a6
 116:	0001                	nop
 118:	0018                	0x18
 11a:	0000                	unimp
 11c:	011c                	addi	a5,sp,128
 11e:	0000                	unimp
 120:	0060                	addi	s0,sp,12
 122:	0800                	addi	s0,sp,16
 124:	005a                	c.slli	zero,0x16
 126:	0000                	unimp
 128:	4200                	lw	s0,0(a2)
 12a:	100e                	c.slli	zero,0x23
 12c:	8144                	0x8144
 12e:	8801                	andi	s0,s0,0
 130:	0002                	c.slli64	zero
 132:	0000                	unimp
 134:	0010                	0x10
 136:	0000                	unimp
 138:	0138                	addi	a4,sp,136
 13a:	0000                	unimp
 13c:	1dc2                	slli	s11,s11,0x30
 13e:	0800                	addi	s0,sp,16
 140:	0002                	c.slli64	zero
 142:	0000                	unimp
 144:	0000                	unimp
 146:	0000                	unimp
 148:	0010                	0x10
 14a:	0000                	unimp
 14c:	014c                	addi	a1,sp,132
 14e:	0000                	unimp
 150:	1db0                	addi	a2,sp,760
 152:	0800                	addi	s0,sp,16
 154:	0002                	c.slli64	zero
 156:	0000                	unimp
 158:	0000                	unimp
 15a:	0000                	unimp
 15c:	0010                	0x10
 15e:	0000                	unimp
 160:	0160                	addi	s0,sp,140
 162:	0000                	unimp
 164:	1d9e                	slli	s11,s11,0x27
 166:	0800                	addi	s0,sp,16
 168:	0002                	c.slli64	zero
 16a:	0000                	unimp
 16c:	0000                	unimp
 16e:	0000                	unimp
 170:	0014                	0x14
 172:	0000                	unimp
 174:	0174                	addi	a3,sp,140
 176:	0000                	unimp
 178:	1d8c                	addi	a1,sp,752
 17a:	0800                	addi	s0,sp,16
 17c:	0020                	addi	s0,sp,8
 17e:	0000                	unimp
 180:	4200                	lw	s0,0(a2)
 182:	100e                	c.slli	zero,0x23
 184:	8142                	mv	sp,a6
 186:	0001                	nop
 188:	0010                	0x10
 18a:	0000                	unimp
 18c:	018c                	addi	a1,sp,192
 18e:	0000                	unimp
 190:	2094                	fld	fa3,0(s1)
 192:	0800                	addi	s0,sp,16
 194:	0016                	c.slli	zero,0x5
 196:	0000                	unimp
 198:	0000                	unimp
 19a:	0000                	unimp
 19c:	0010                	0x10
 19e:	0000                	unimp
 1a0:	01a0                	addi	s0,sp,200
 1a2:	0000                	unimp
 1a4:	2096                	fld	ft1,320(sp)
 1a6:	0800                	addi	s0,sp,16
 1a8:	0010                	0x10
 1aa:	0000                	unimp
 1ac:	0000                	unimp
 1ae:	0000                	unimp
 1b0:	0014                	0x14
 1b2:	0000                	unimp
 1b4:	0000                	unimp
 1b6:	0000                	unimp
 1b8:	00527a03          	0x527a03
 1bc:	7c01                	lui	s8,0xfffe0
 1be:	0101                	addi	sp,sp,0
 1c0:	07020d1b          	0x7020d1b
 1c4:	0001                	nop
 1c6:	0000                	unimp
 1c8:	0010                	0x10
 1ca:	0000                	unimp
 1cc:	001c                	0x1c
 1ce:	0000                	unimp
 1d0:	fe38                	fsw	fa4,120(a2)
 1d2:	008207ff          	radd16	a5,tp,s0
	...

Disassembly of section .debug_abbrev:

00000000 <.debug_abbrev>:
   0:	1101                	addi	sp,sp,-32
   2:	2501                	jal	602 <.Lline_table_start0+0x50a>
   4:	130e                	slli	t1,t1,0x23
   6:	0305                	addi	t1,t1,1
   8:	100e                	c.slli	zero,0x23
   a:	b40e1b17          	auipc	s6,0xb40e1
   e:	1942                	slli	s2,s2,0x30
  10:	0111                	addi	sp,sp,4
  12:	1755                	addi	a4,a4,-11
  14:	0000                	unimp
  16:	3902                	fld	fs2,32(sp)
  18:	0301                	addi	t1,t1,0
  1a:	000e                	c.slli	zero,0x3
  1c:	0300                	addi	s0,sp,384
  1e:	002e                	c.slli	zero,0xb
  20:	0111                	addi	sp,sp,4
  22:	0612                	slli	a2,a2,0x4
  24:	1840                	addi	s0,sp,52
  26:	0e6e                	slli	t3,t3,0x1b
  28:	0b3a0e03          	lb	t3,179(s4) # fffe00b3 <_stack_start+0xdffd80b3>
  2c:	193f0b3b          	0x193f0b3b
  30:	00190187          	0x190187
  34:	0400                	addi	s0,sp,512
  36:	002e                	c.slli	zero,0xb
  38:	0111                	addi	sp,sp,4
  3a:	0612                	slli	a2,a2,0x4
  3c:	1840                	addi	s0,sp,52
  3e:	0e6e                	slli	t3,t3,0x1b
  40:	0b3a0e03          	lb	t3,179(s4)
  44:	193f053b          	0x193f053b
  48:	00190187          	0x190187
  4c:	0000                	unimp
  4e:	1101                	addi	sp,sp,-32
  50:	2501                	jal	650 <.Lline_table_start0+0x558>
  52:	130e                	slli	t1,t1,0x23
  54:	0305                	addi	t1,t1,1
  56:	100e                	c.slli	zero,0x23
  58:	b40e1b17          	auipc	s6,0xb40e1
  5c:	1942                	slli	s2,s2,0x30
  5e:	0111                	addi	sp,sp,4
  60:	1755                	addi	a4,a4,-11
  62:	0000                	unimp
  64:	3902                	fld	fs2,32(sp)
  66:	0301                	addi	t1,t1,0
  68:	000e                	c.slli	zero,0x3
  6a:	0300                	addi	s0,sp,384
  6c:	002e                	c.slli	zero,0xb
  6e:	0111                	addi	sp,sp,4
  70:	0612                	slli	a2,a2,0x4
  72:	1840                	addi	s0,sp,52
  74:	0b3a0e03          	lb	t3,179(s4)
  78:	193f0b3b          	0x193f0b3b
  7c:	0000                	unimp
  7e:	2e04                	fld	fs1,24(a2)
  80:	0300                	addi	s0,sp,384
  82:	3a0e                	fld	fs4,224(sp)
  84:	3f0b3b0b          	0x3f0b3b0b
  88:	2019                	jal	8e <_heap_size+0x8e>
  8a:	0500000b          	0x500000b
  8e:	012e                	slli	sp,sp,0xb
  90:	0111                	addi	sp,sp,4
  92:	0612                	slli	a2,a2,0x4
  94:	1840                	addi	s0,sp,52
  96:	0b3a0e03          	lb	t3,179(s4)
  9a:	193f0b3b          	0x193f0b3b
  9e:	0000                	unimp
  a0:	1d06                	slli	s10,s10,0x21
  a2:	3100                	fld	fs0,32(a0)
  a4:	58175513          	0x58175513
  a8:	570b590b          	0x570b590b
  ac:	0700000b          	0x700000b
  b0:	002e                	c.slli	zero,0xb
  b2:	0e6e                	slli	t3,t3,0x1b
  b4:	0b3a0e03          	lb	t3,179(s4)
  b8:	0b200b3b          	0xb200b3b
  bc:	0000                	unimp
  be:	2e08                	fld	fa0,24(a2)
  c0:	1101                	addi	sp,sp,-32
  c2:	1201                	addi	tp,tp,-32
  c4:	4006                	0x4006
  c6:	6e18                	flw	fa4,24(a2)
  c8:	030e                	slli	t1,t1,0x3
  ca:	3a0e                	fld	fs4,224(sp)
  cc:	3f053b0b          	0x3f053b0b
  d0:	0019                	c.nop	6
  d2:	0900                	addi	s0,sp,144
  d4:	001d                	c.nop	7
  d6:	1331                	addi	t1,t1,-20
  d8:	0111                	addi	sp,sp,4
  da:	0612                	slli	a2,a2,0x4
  dc:	0b58                	addi	a4,sp,404
  de:	0b59                	addi	s6,s6,22
  e0:	00000b57          	0xb57
  e4:	1d0a                	slli	s10,s10,0x22
  e6:	3101                	jal	fffffce6 <_stack_start+0xdfff7ce6>
  e8:	12011113          	0x12011113
  ec:	5806                	lw	a6,96(sp)
  ee:	570b590b          	0x570b590b
  f2:	0b00000b          	0xb00000b
  f6:	001d                	c.nop	7
  f8:	1331                	addi	t1,t1,-20
  fa:	0111                	addi	sp,sp,4
  fc:	0612                	slli	a2,a2,0x4
  fe:	0b58                	addi	a4,sp,404
 100:	0559                	addi	a0,a0,22
 102:	00000b57          	0xb57
 106:	2e0c                	fld	fa1,24(a2)
 108:	6e00                	flw	fs0,24(a2)
 10a:	030e                	slli	t1,t1,0x3
 10c:	3a0e                	fld	fs4,224(sp)
 10e:	20053b0b          	0x20053b0b
 112:	0000000b          	0xb
 116:	1101                	addi	sp,sp,-32
 118:	1000                	addi	s0,sp,32
 11a:	5506                	lw	a0,96(sp)
 11c:	0306                	slli	t1,t1,0x1
 11e:	1b0e                	slli	s6,s6,0x23
 120:	250e                	fld	fa0,192(sp)
 122:	130e                	slli	t1,t1,0x23
 124:	0005                	c.nop	1
	...

Disassembly of section .debug_info:

00000000 <.debug_info>:
   0:	00a0                	addi	s0,sp,72
   2:	0000                	unimp
   4:	0004                	0x4
   6:	0000                	unimp
   8:	0000                	unimp
   a:	0104                	addi	s1,sp,128
   c:	0095                	addi	ra,ra,5
   e:	0000                	unimp
  10:	001c                	0x1c
  12:	01a9                	addi	gp,gp,10
  14:	0000                	unimp
  16:	0000                	unimp
  18:	0000                	unimp
  1a:	0a2e                	slli	s4,s4,0xb
	...
  24:	0000                	unimp
  26:	7b02                	flw	fs6,32(sp)
  28:	0009                	c.nop	2
  2a:	0200                	addi	s0,sp,256
  2c:	0271                	addi	tp,tp,28
  2e:	0000                	unimp
  30:	001e4003          	lbu	zero,1(t3) # 1a001 <_hart_stack_size+0x19801>
  34:	0e08                	addi	a0,sp,784
  36:	0000                	unimp
  38:	0100                	addi	s0,sp,128
  3a:	d252                	sw	s4,36(sp)
  3c:	eb000007          	0xeb000007
  40:	0009                	c.nop	2
  42:	0100                	addi	s0,sp,128
  44:	1e4e0327          	0x1e4e0327
  48:	0800                	addi	s0,sp,16
  4a:	000e                	c.slli	zero,0x3
  4c:	0000                	unimp
  4e:	5201                	li	tp,-32
  50:	04c0                	addi	s0,sp,580
  52:	0000                	unimp
  54:	0000                	unimp
  56:	0000                	unimp
  58:	4001                	c.li	zero,0
  5a:	001e5c03          	lhu	s8,1(t3)
  5e:	0e08                	addi	a0,sp,784
  60:	0000                	unimp
  62:	0100                	addi	s0,sp,128
  64:	f152                	fsw	fs4,160(sp)
  66:	0009                	c.nop	2
  68:	8800                	0x8800
  6a:	01000003          	lb	zero,16(zero) # 10 <_heap_size+0x10>
  6e:	004d                	c.nop	19
  70:	c502                	sw	zero,136(sp)
  72:	0400000b          	0x400000b
  76:	1e6a                	slli	t3,t3,0x3a
  78:	0800                	addi	s0,sp,16
  7a:	000e                	c.slli	zero,0x3
  7c:	0000                	unimp
  7e:	5201                	li	tp,-32
  80:	03e4                	addi	s1,sp,460
  82:	0000                	unimp
  84:	0980                	addi	s0,sp,208
  86:	0000                	unimp
  88:	eb02                	fsw	ft0,148(sp)
  8a:	0404                	addi	s1,sp,512
  8c:	1e78                	addi	a4,sp,828
  8e:	0800                	addi	s0,sp,16
  90:	000e                	c.slli	zero,0x3
  92:	0000                	unimp
  94:	5201                	li	tp,-32
  96:	0000027b          	0x27b
  9a:	000004fb          	0x4fb
  9e:	f302                	fsw	ft0,164(sp)
  a0:	0004                	0x4
  a2:	0000                	unimp
  a4:	000002a7          	0x2a7
  a8:	0004                	0x4
  aa:	004e                	c.slli	zero,0x13
  ac:	0000                	unimp
  ae:	0104                	addi	s1,sp,128
  b0:	0095                	addi	ra,ra,5
  b2:	0000                	unimp
  b4:	001c                	0x1c
  b6:	01c1                	addi	gp,gp,16
  b8:	0000                	unimp
  ba:	00f8                	addi	a4,sp,76
  bc:	0000                	unimp
  be:	0a2e                	slli	s4,s4,0xb
  c0:	0000                	unimp
  c2:	0000                	unimp
  c4:	0000                	unimp
  c6:	0048                	addi	a0,sp,4
  c8:	0000                	unimp
  ca:	1302                	slli	t1,t1,0x20
  cc:	0009                	c.nop	2
  ce:	0200                	addi	s0,sp,256
  d0:	098e                	slli	s3,s3,0x3
  d2:	0000                	unimp
  d4:	00222403          	lw	s0,2(tp) # ffff9002 <_stack_start+0xdfff1002>
  d8:	1608                	addi	a0,sp,800
  da:	0000                	unimp
  dc:	0100                	addi	s0,sp,128
  de:	6752                	flw	fa4,20(sp)
  e0:	0004                	0x4
  e2:	0100                	addi	s0,sp,128
  e4:	030d                	addi	t1,t1,3
  e6:	0000                	unimp
  e8:	0000                	unimp
  ea:	003e                	c.slli	zero,0xf
  ec:	0000                	unimp
  ee:	5201                	li	tp,-32
  f0:	0516                	slli	a0,a0,0x5
  f2:	0000                	unimp
  f4:	1701                	addi	a4,a4,-32
  f6:	00223a03          	0x223a03
  fa:	1008                	addi	a0,sp,32
  fc:	0000                	unimp
  fe:	0100                	addi	s0,sp,128
 100:	cb52                	sw	s4,148(sp)
 102:	01000007          	0x1000007
 106:	0a22042b          	0xa22042b
 10a:	0000                	unimp
 10c:	3501                	jal	ffffff0c <_stack_start+0xdfff7f0c>
 10e:	0501                	addi	a0,a0,0
 110:	0000                	unimp
 112:	0000                	unimp
 114:	0020                	addi	s0,sp,8
 116:	0000                	unimp
 118:	5201                	li	tp,-32
 11a:	0a29                	addi	s4,s4,10
 11c:	0000                	unimp
 11e:	4301                	li	t1,0
 120:	6306                	flw	ft6,64(sp)
 122:	0000                	unimp
 124:	3000                	fld	fs0,32(s0)
 126:	0000                	unimp
 128:	0100                	addi	s0,sp,128
 12a:	0544                	addi	s1,sp,644
 12c:	0700                	addi	s0,sp,896
 12e:	06f8                	addi	a4,sp,844
 130:	0000                	unimp
 132:	0582                	c.slli64	a1
 134:	0000                	unimp
 136:	4801                	li	a6,0
 138:	0801                	addi	a6,a6,0
 13a:	0000                	unimp
 13c:	0000                	unimp
 13e:	0014                	0x14
 140:	0000                	unimp
 142:	5201                	li	tp,-32
 144:	0126                	slli	sp,sp,0x9
 146:	0000                	unimp
 148:	08ea                	slli	a7,a7,0x1a
 14a:	0000                	unimp
 14c:	0602                	c.slli64	a2
 14e:	0901                	addi	s2,s2,0
 150:	0089                	addi	ra,ra,2
 152:	0000                	unimp
 154:	0000                	unimp
 156:	0000                	unimp
 158:	0012                	c.slli	zero,0x4
 15a:	0000                	unimp
 15c:	8601                	c.srai64	a2
 15e:	0009                	c.nop	2
 160:	0007ff07          	0x7ff07
 164:	4900                	lw	s0,16(a0)
 166:	0100000b          	0x100000b
 16a:	0148                	addi	a0,sp,132
 16c:	0008                	0x8
 16e:	0000                	unimp
 170:	1a00                	addi	s0,sp,304
 172:	0000                	unimp
 174:	0100                	addi	s0,sp,128
 176:	9052                	c.add	zero,s4
 178:	000a                	c.slli	zero,0x2
 17a:	7800                	flw	fs0,48(s0)
 17c:	0200000b          	0x200000b
 180:	0106                	slli	sp,sp,0x1
 182:	bc09                	j	fffffb94 <_stack_start+0xdfff7b94>
 184:	0000                	unimp
 186:	0000                	unimp
 188:	0000                	unimp
 18a:	1800                	addi	s0,sp,48
 18c:	0000                	unimp
 18e:	0100                	addi	s0,sp,128
 190:	098a                	slli	s3,s3,0x2
 192:	0700                	addi	s0,sp,896
 194:	0748                	addi	a0,sp,900
 196:	0000                	unimp
 198:	0000084f          	fnmadd.s	fa6,ft0,ft0,ft0,rne
 19c:	4801                	li	a6,0
 19e:	0801                	addi	a6,a6,0
 1a0:	0000                	unimp
 1a2:	0000                	unimp
 1a4:	0016                	c.slli	zero,0x5
 1a6:	0000                	unimp
 1a8:	5201                	li	tp,-32
 1aa:	00000013          	nop
 1ae:	006c                	addi	a1,sp,12
 1b0:	0000                	unimp
 1b2:	0602                	c.slli64	a2
 1b4:	0901                	addi	s2,s2,0
 1b6:	000000ef          	jal	ra,1b6 <.Lline_table_start0+0xbe>
 1ba:	0000                	unimp
 1bc:	0000                	unimp
 1be:	0014                	0x14
 1c0:	0000                	unimp
 1c2:	8e01                	sub	a2,a2,s0
 1c4:	0009                	c.nop	2
 1c6:	00033707          	fld	fa4,0(t1) # ffffa000 <_stack_start+0xdfff2000>
 1ca:	2500                	fld	fs0,8(a0)
 1cc:	0009                	c.nop	2
 1ce:	0100                	addi	s0,sp,128
 1d0:	0154                	addi	a3,sp,132
 1d2:	0008                	0x8
 1d4:	0000                	unimp
 1d6:	3a00                	fld	fs0,48(a2)
 1d8:	0000                	unimp
 1da:	0100                	addi	s0,sp,128
 1dc:	e952                	fsw	fs4,144(sp)
 1de:	000a                	c.slli	zero,0x2
 1e0:	b300                	fsd	fs0,32(a4)
 1e2:	0002                	c.slli64	zero
 1e4:	0200                	addi	s0,sp,256
 1e6:	0106                	slli	sp,sp,0x1
 1e8:	220a                	fld	ft4,128(sp)
 1ea:	0001                	nop
 1ec:	0000                	unimp
 1ee:	0000                	unimp
 1f0:	3800                	fld	fs0,48(s0)
 1f2:	0000                	unimp
 1f4:	0100                	addi	s0,sp,128
 1f6:	990a099b          	0x990a099b
 1fa:	0002                	c.slli64	zero
 1fc:	0000                	unimp
 1fe:	0000                	unimp
 200:	0200                	addi	s0,sp,256
 202:	0000                	unimp
 204:	0100                	addi	s0,sp,128
 206:	4b5c                	lw	a5,20(a4)
 208:	00028d0b          	0x28d0b
 20c:	0000                	unimp
 20e:	0000                	unimp
 210:	0200                	addi	s0,sp,256
 212:	0000                	unimp
 214:	0300                	addi	s0,sp,384
 216:	001201f3          	0x1201f3
 21a:	0000                	unimp
 21c:	00087407          	0x87407
 220:	5500                	lw	s0,40(a0)
 222:	0009                	c.nop	2
 224:	0100                	addi	s0,sp,128
 226:	0154                	addi	a3,sp,132
 228:	0008                	0x8
 22a:	0000                	unimp
 22c:	4200                	lw	s0,0(a2)
 22e:	0000                	unimp
 230:	0100                	addi	s0,sp,128
 232:	1e52                	slli	t3,t3,0x34
 234:	0005                	c.nop	1
 236:	7f00                	flw	fs0,56(a4)
 238:	0001                	nop
 23a:	0200                	addi	s0,sp,256
 23c:	0106                	slli	sp,sp,0x1
 23e:	7809                	lui	a6,0xfffe2
 240:	0001                	nop
 242:	0000                	unimp
 244:	0000                	unimp
 246:	4000                	lw	s0,0(s0)
 248:	0000                	unimp
 24a:	0100                	addi	s0,sp,128
 24c:	099f 0700 05ff      	0x5ff0700099f
 252:	0000                	unimp
 254:	0798                	addi	a4,sp,960
 256:	0000                	unimp
 258:	5401                	li	s0,-32
 25a:	0801                	addi	a6,a6,0
 25c:	0000                	unimp
 25e:	0000                	unimp
 260:	003a                	c.slli	zero,0xe
 262:	0000                	unimp
 264:	5201                	li	tp,-32
 266:	02dd                	addi	t0,t0,23
 268:	0000                	unimp
 26a:	06ce                	slli	a3,a3,0x13
 26c:	0000                	unimp
 26e:	0602                	c.slli64	a2
 270:	0901                	addi	s2,s2,0
 272:	000001ab          	0x1ab
 276:	0000                	unimp
 278:	0000                	unimp
 27a:	0038                	addi	a4,sp,8
 27c:	0000                	unimp
 27e:	a301                	j	77e <.Lline_table_start0+0x686>
 280:	0009                	c.nop	2
 282:	00041707          	0x41707
 286:	a100                	fsd	fs0,0(a0)
 288:	0100000b          	0x100000b
 28c:	016a                	slli	sp,sp,0x1a
 28e:	0008                	0x8
 290:	0000                	unimp
 292:	0e00                	addi	s0,sp,784
 294:	0000                	unimp
 296:	0100                	addi	s0,sp,128
 298:	9252                	add	tp,tp,s4
 29a:	0009                	c.nop	2
 29c:	6e00                	flw	fs0,24(a2)
 29e:	0004                	0x4
 2a0:	0200                	addi	s0,sp,256
 2a2:	0106                	slli	sp,sp,0x1
 2a4:	de09                	beqz	a2,1be <.Lline_table_start0+0xc6>
 2a6:	0001                	nop
 2a8:	0000                	unimp
 2aa:	0000                	unimp
 2ac:	0c00                	addi	s0,sp,528
 2ae:	0000                	unimp
 2b0:	0100                	addi	s0,sp,128
 2b2:	09b0                	addi	a2,sp,216
 2b4:	0700                	addi	s0,sp,896
 2b6:	00d6                	slli	ra,ra,0x15
 2b8:	0000                	unimp
 2ba:	08c5                	addi	a7,a7,17
 2bc:	0000                	unimp
 2be:	6a01                	0x6a01
 2c0:	0801                	addi	a6,a6,0
 2c2:	0000                	unimp
 2c4:	0000                	unimp
 2c6:	001a                	c.slli	zero,0x6
 2c8:	0000                	unimp
 2ca:	5201                	li	tp,-32
 2cc:	0650                	addi	a2,sp,772
 2ce:	0000                	unimp
 2d0:	00000497          	auipc	s1,0x0
 2d4:	0602                	c.slli64	a2
 2d6:	0901                	addi	s2,s2,0
 2d8:	0211                	addi	tp,tp,4
 2da:	0000                	unimp
 2dc:	0000                	unimp
 2de:	0000                	unimp
 2e0:	0018                	0x18
 2e2:	0000                	unimp
 2e4:	b401                	j	fffffce4 <_stack_start+0xdfff7ce4>
 2e6:	0009                	c.nop	2
 2e8:	00021507          	0x21507
 2ec:	a900                	fsd	fs0,16(a0)
 2ee:	0006                	c.slli	zero,0x1
 2f0:	0100                	addi	s0,sp,128
 2f2:	016a                	slli	sp,sp,0x1a
 2f4:	0008                	0x8
 2f6:	0000                	unimp
 2f8:	2600                	fld	fs0,8(a2)
 2fa:	0000                	unimp
 2fc:	0100                	addi	s0,sp,128
 2fe:	a652                	fsd	fs4,264(sp)
 300:	0005                	c.nop	1
 302:	cc00                	sw	s0,24(s0)
 304:	0200000b          	0x200000b
 308:	0106                	slli	sp,sp,0x1
 30a:	4409                	li	s0,2
 30c:	0002                	c.slli64	zero
 30e:	0000                	unimp
 310:	0000                	unimp
 312:	2400                	fld	fs0,8(s0)
 314:	0000                	unimp
 316:	0100                	addi	s0,sp,128
 318:	09b8                	addi	a4,sp,216
 31a:	0000                	unimp
 31c:	0200                	addi	s0,sp,256
 31e:	0000097b          	0x97b
 322:	be02                	fsd	ft0,312(sp)
 324:	02000007          	0x2000007
 328:	0b6e                	slli	s6,s6,0x1b
 32a:	0000                	unimp
 32c:	c202                	sw	zero,4(sp)
 32e:	07000007          	0x7000007
 332:	0bf5                	addi	s7,s7,29
 334:	0000                	unimp
 336:	094a                	slli	s2,s2,0x12
 338:	0000                	unimp
 33a:	0c01dc03          	lhu	s8,192(gp) # 4b1a00c0 <_stack_start+0x2b1980c0>
 33e:	0392                	slli	t2,t2,0x4
 340:	0000                	unimp
 342:	050e                	slli	a0,a0,0x3
 344:	0000                	unimp
 346:	0101ee03          	0x101ee03
 34a:	0000                	unimp
 34c:	0000                	unimp
 34e:	1e00                	addi	s0,sp,816
 350:	0000                	unimp
 352:	0200                	addi	s0,sp,256
 354:	1600                	addi	s0,sp,800
 356:	0001                	nop
 358:	0400                	addi	s0,sp,512
 35a:	5c01                	li	s8,-32
 35c:	0005                	c.nop	1
 35e:	b800                	fsd	fs0,48(s0)
 360:	0000                	unimp
 362:	4300                	lw	s0,0(a4)
 364:	7800000b          	0x7800000b
 368:	0005                	c.nop	1
 36a:	6500                	flw	fs0,8(a0)
 36c:	0002                	c.slli64	zero
 36e:	0100                	addi	s0,sp,128
 370:	80              	Address 0x0000000000000370 is out of bounds.


Disassembly of section .debug_aranges:

00000000 <.debug_aranges>:
   0:	003c                	addi	a5,sp,8
   2:	0000                	unimp
   4:	0002                	c.slli64	zero
   6:	0000                	unimp
   8:	0000                	unimp
   a:	0004                	0x4
   c:	ffffffff          	0xffffffff
  10:	1e40                	addi	s0,sp,820
  12:	0800                	addi	s0,sp,16
  14:	000e                	c.slli	zero,0x3
  16:	0000                	unimp
  18:	1e4e                	slli	t3,t3,0x33
  1a:	0800                	addi	s0,sp,16
  1c:	000e                	c.slli	zero,0x3
  1e:	0000                	unimp
  20:	1e5c                	addi	a5,sp,820
  22:	0800                	addi	s0,sp,16
  24:	000e                	c.slli	zero,0x3
  26:	0000                	unimp
  28:	1e6a                	slli	t3,t3,0x3a
  2a:	0800                	addi	s0,sp,16
  2c:	000e                	c.slli	zero,0x3
  2e:	0000                	unimp
  30:	1e78                	addi	a4,sp,828
  32:	0800                	addi	s0,sp,16
  34:	000e                	c.slli	zero,0x3
	...
  3e:	0000                	unimp
  40:	007c                	addi	a5,sp,12
  42:	0000                	unimp
  44:	0002                	c.slli64	zero
  46:	00a4                	addi	s1,sp,72
  48:	0000                	unimp
  4a:	0004                	0x4
  4c:	ffffffff          	0xffffffff
  50:	2224                	fld	fs1,64(a2)
  52:	0800                	addi	s0,sp,16
  54:	0016                	c.slli	zero,0x5
  56:	0000                	unimp
  58:	0000                	unimp
  5a:	0000                	unimp
  5c:	003e                	c.slli	zero,0xf
  5e:	0000                	unimp
  60:	223a                	fld	ft4,392(sp)
  62:	0800                	addi	s0,sp,16
  64:	0010                	0x10
  66:	0000                	unimp
  68:	0000                	unimp
  6a:	0000                	unimp
  6c:	0020                	addi	s0,sp,8
  6e:	0000                	unimp
  70:	0000                	unimp
  72:	0000                	unimp
  74:	0014                	0x14
  76:	0000                	unimp
  78:	0000                	unimp
  7a:	0000                	unimp
  7c:	001a                	c.slli	zero,0x6
  7e:	0000                	unimp
  80:	0000                	unimp
  82:	0000                	unimp
  84:	0016                	c.slli	zero,0x5
  86:	0000                	unimp
  88:	0000                	unimp
  8a:	0000                	unimp
  8c:	003a                	c.slli	zero,0xe
  8e:	0000                	unimp
  90:	0000                	unimp
  92:	0000                	unimp
  94:	0042                	c.slli	zero,0x10
  96:	0000                	unimp
  98:	0000                	unimp
  9a:	0000                	unimp
  9c:	003a                	c.slli	zero,0xe
  9e:	0000                	unimp
  a0:	0000                	unimp
  a2:	0000                	unimp
  a4:	000e                	c.slli	zero,0x3
  a6:	0000                	unimp
  a8:	0000                	unimp
  aa:	0000                	unimp
  ac:	001a                	c.slli	zero,0x6
  ae:	0000                	unimp
  b0:	0000                	unimp
  b2:	0000                	unimp
  b4:	0026                	c.slli	zero,0x9
	...
  be:	0000                	unimp
  c0:	002c                	addi	a1,sp,8
  c2:	0000                	unimp
  c4:	0002                	c.slli64	zero
  c6:	0000034f          	fnmadd.s	ft6,ft0,ft0,ft0,rne
  ca:	0004                	0x4
  cc:	0000                	unimp
  ce:	0000                	unimp
  d0:	0000                	unimp
  d2:	0800                	addi	s0,sp,16
  d4:	008a                	slli	ra,ra,0x2
  d6:	0000                	unimp
  d8:	0000                	unimp
  da:	0000                	unimp
  dc:	0050                	addi	a2,sp,4
  de:	0000                	unimp
  e0:	224a                	fld	ft4,144(sp)
  e2:	0800                	addi	s0,sp,16
  e4:	0010                	0x10
	...

Disassembly of section .debug_ranges:

00000000 <.debug_ranges>:
   0:	1e40                	addi	s0,sp,820
   2:	0800                	addi	s0,sp,16
   4:	1e4e                	slli	t3,t3,0x33
   6:	0800                	addi	s0,sp,16
   8:	1e4e                	slli	t3,t3,0x33
   a:	0800                	addi	s0,sp,16
   c:	1e5c                	addi	a5,sp,820
   e:	0800                	addi	s0,sp,16
  10:	1e5c                	addi	a5,sp,820
  12:	0800                	addi	s0,sp,16
  14:	1e6a                	slli	t3,t3,0x3a
  16:	0800                	addi	s0,sp,16
  18:	1e6a                	slli	t3,t3,0x3a
  1a:	0800                	addi	s0,sp,16
  1c:	1e78                	addi	a4,sp,828
  1e:	0800                	addi	s0,sp,16
  20:	1e78                	addi	a4,sp,828
  22:	0800                	addi	s0,sp,16
  24:	1e86                	slli	t4,t4,0x21
  26:	0800                	addi	s0,sp,16
	...
  30:	0001                	nop
  32:	0000                	unimp
  34:	0001                	nop
  36:	0000                	unimp
  38:	0001                	nop
  3a:	0000                	unimp
  3c:	0001                	nop
	...
  46:	0000                	unimp
  48:	2224                	fld	fs1,64(a2)
  4a:	0800                	addi	s0,sp,16
  4c:	223a                	fld	ft4,392(sp)
  4e:	0800                	addi	s0,sp,16
  50:	0001                	nop
  52:	0000                	unimp
  54:	0001                	nop
  56:	0000                	unimp
  58:	223a                	fld	ft4,392(sp)
  5a:	0800                	addi	s0,sp,16
  5c:	224a                	fld	ft4,144(sp)
  5e:	0800                	addi	s0,sp,16
  60:	0001                	nop
  62:	0000                	unimp
  64:	0001                	nop
  66:	0000                	unimp
  68:	0001                	nop
  6a:	0000                	unimp
  6c:	0001                	nop
  6e:	0000                	unimp
  70:	0001                	nop
  72:	0000                	unimp
  74:	0001                	nop
  76:	0000                	unimp
  78:	0001                	nop
  7a:	0000                	unimp
  7c:	0001                	nop
  7e:	0000                	unimp
  80:	0001                	nop
  82:	0000                	unimp
  84:	0001                	nop
  86:	0000                	unimp
  88:	0001                	nop
  8a:	0000                	unimp
  8c:	0001                	nop
  8e:	0000                	unimp
  90:	0001                	nop
  92:	0000                	unimp
  94:	0001                	nop
  96:	0000                	unimp
  98:	0001                	nop
  9a:	0000                	unimp
  9c:	0001                	nop
  9e:	0000                	unimp
  a0:	0001                	nop
  a2:	0000                	unimp
  a4:	0001                	nop
  a6:	0000                	unimp
  a8:	0001                	nop
  aa:	0000                	unimp
  ac:	0001                	nop
	...
  b6:	0000                	unimp
  b8:	ffffffff          	0xffffffff
  bc:	0000                	unimp
  be:	0000                	unimp
  c0:	0000                	unimp
  c2:	0800                	addi	s0,sp,16
  c4:	008a                	slli	ra,ra,0x2
  c6:	0800                	addi	s0,sp,16
  c8:	0001                	nop
  ca:	0000                	unimp
  cc:	0001                	nop
  ce:	0000                	unimp
  d0:	224a                	fld	ft4,144(sp)
  d2:	0800                	addi	s0,sp,16
  d4:	225a                	fld	ft4,400(sp)
  d6:	0800                	addi	s0,sp,16
	...

Disassembly of section .debug_str:

00000000 <.debug_str>:
   0:	6170                	flw	fa2,68(a0)
   2:	696e                	flw	fs2,216(sp)
   4:	6f625f63          	bge	tp,s6,702 <.Lline_table_start0+0x60a>
   8:	6e75                	lui	t3,0x1d
   a:	7364                	flw	fs1,100(a4)
   c:	635f 6568 6b63      	0x6b636568635f
  12:	5f00                	lw	s0,56(a4)
  14:	4e5a                	lw	t3,148(sp)
  16:	3731                	jal	ffffff22 <_stack_start+0xdfff7f22>
  18:	706d6f63          	bltu	s10,t1,736 <.Lline_table_start0+0x63e>
  1c:	6c69                	lui	s8,0x1a
  1e:	7265                	lui	tp,0xffff9
  20:	625f 6975 746c      	0x746c6975625f
  26:	6e69                	lui	t3,0x1a
  28:	656d3373          	csrrc	t1,0x656,s10
  2c:	346d                	jal	fffffad6 <_stack_start+0xdfff7ad6>
  2e:	5f30                	lw	a2,120(a4)
  30:	6c5f 766c 5f6d      	0x5f6d766c6c5f
  36:	656d                	lui	a0,0x1b
  38:	636d                	lui	t1,0x1b
  3a:	7970                	flw	fa2,116(a0)
  3c:	655f 656c 656d      	0x656d656c655f
  42:	746e                	flw	fs0,248(sp)
  44:	755f 6f6e 6472      	0x64726f6e755f
  4a:	7265                	lui	tp,0xffff9
  4c:	6465                	lui	s0,0x19
  4e:	615f 6f74 696d      	0x696d6f74615f
  54:	31345f63          	bge	s0,s3,372 <.Lline_table_start0+0x27a>
  58:	62366837          	lui	a6,0x62366
  5c:	6162                	flw	ft2,24(sp)
  5e:	6634                	flw	fa3,72(a2)
  60:	6564                	flw	fs1,76(a0)
  62:	3736                	fld	fa4,360(sp)
  64:	3066                	fld	ft0,120(sp)
  66:	3332                	fld	ft6,296(sp)
  68:	3136                	fld	ft2,360(sp)
  6a:	0045                	c.nop	17
  6c:	5f5f 6c6c 6d76      	0x6d766c6c5f5f
  72:	6d5f 6d65 7063      	0x70636d656d5f
  78:	5f79                	li	t5,-2
  7a:	6c65                	lui	s8,0x19
  7c:	6d65                	lui	s10,0x19
  7e:	6e65                	lui	t3,0x19
  80:	5f74                	lw	a3,124(a4)
  82:	6e75                	lui	t3,0x1d
  84:	6564726f          	jal	tp,476da <_hart_stack_size+0x46eda>
  88:	6572                	flw	fa0,28(sp)
  8a:	5f64                	lw	s1,124(a4)
  8c:	7461                	lui	s0,0xffff8
  8e:	63696d6f          	jal	s10,966c4 <_hart_stack_size+0x95ec4>
  92:	345f 6300 616c      	0x616c6300345f
  98:	676e                	flw	fa4,216(sp)
  9a:	4c20                	lw	s0,88(s0)
  9c:	564c                	lw	a1,44(a2)
  9e:	204d                	jal	140 <.Lline_table_start0+0x48>
  a0:	7228                	flw	fa0,96(a2)
  a2:	7375                	lui	t1,0xffffd
  a4:	6374                	flw	fa3,68(a4)
  a6:	7620                	flw	fs0,104(a2)
  a8:	7265                	lui	tp,0xffff9
  aa:	6e6f6973          	csrrsi	s2,0x6e6,30
  ae:	3120                	fld	fs0,96(a0)
  b0:	352e                	fld	fa0,232(sp)
  b2:	2e31                	jal	3ce <.Lline_table_start0+0x2d6>
  b4:	2d30                	fld	fa2,88(a0)
  b6:	696e                	flw	fs2,216(sp)
  b8:	6c746867          	0x6c746867
  bc:	2079                	jal	14a <.Lline_table_start0+0x52>
  be:	3228                	fld	fa0,96(a2)
  c0:	3735                	jal	ffffffec <_stack_start+0xdfff7fec>
  c2:	6562                	flw	fa0,24(sp)
  c4:	65666263          	bltu	a2,s6,708 <.Lline_table_start0+0x610>
  c8:	3220                	fld	fs0,96(a2)
  ca:	3230                	fld	fa2,96(a2)
  cc:	2d30                	fld	fa2,88(a0)
  ce:	3231                	jal	fffff9da <_stack_start+0xdfff79da>
  d0:	322d                	jal	fffff9fa <_stack_start+0xdfff79fa>
  d2:	00292937          	lui	s2,0x292
  d6:	5a5f 314e 6337      	0x6337314e5a5f
  dc:	69706d6f          	jal	s10,6f72 <_hart_stack_size+0x6772>
  e0:	656c                	flw	fa1,76(a0)
  e2:	5f72                	lw	t5,60(sp)
  e4:	7562                	flw	fa0,56(sp)
  e6:	6c69                	lui	s8,0x1a
  e8:	6974                	flw	fa3,84(a0)
  ea:	736e                	flw	ft6,248(sp)
  ec:	6d656d33          	0x6d656d33
  f0:	656d3133          	0x656d3133
  f4:	736d                	lui	t1,0xffffb
  f6:	7465                	lui	s0,0xffff9
  f8:	655f 656c 656d      	0x656d656c655f
  fe:	746e                	flw	fs0,248(sp)
 100:	755f 6f6e 6472      	0x64726f6e755f
 106:	7265                	lui	tp,0xffff9
 108:	6465                	lui	s0,0x19
 10a:	615f 6f74 696d      	0x696d6f74615f
 110:	68373163          	0x68373163
 114:	62303737          	lui	a4,0x62303
 118:	6531                	lui	a0,0xc
 11a:	63333537          	lui	a0,0x63333
 11e:	37316337          	lui	t1,0x37316
 122:	6539                	lui	a0,0xe
 124:	0045                	c.nop	17
 126:	5a5f 314e 6337      	0x6337314e5a5f
 12c:	69706d6f          	jal	s10,6fc2 <_hart_stack_size+0x67c2>
 130:	656c                	flw	fa1,76(a0)
 132:	5f72                	lw	t5,60(sp)
 134:	7562                	flw	fa0,56(sp)
 136:	6c69                	lui	s8,0x1a
 138:	6974                	flw	fa3,84(a0)
 13a:	736e                	flw	ft6,248(sp)
 13c:	6d656d33          	0x6d656d33
 140:	3034                	fld	fa3,96(s0)
 142:	5f5f 6c6c 6d76      	0x6d766c6c5f5f
 148:	6d5f 6d65 7063      	0x70636d656d5f
 14e:	5f79                	li	t5,-2
 150:	6c65                	lui	s8,0x19
 152:	6d65                	lui	s10,0x19
 154:	6e65                	lui	t3,0x19
 156:	5f74                	lw	a3,124(a4)
 158:	6e75                	lui	t3,0x1d
 15a:	6564726f          	jal	tp,477b0 <_hart_stack_size+0x46fb0>
 15e:	6572                	flw	fa0,28(sp)
 160:	5f64                	lw	s1,124(a4)
 162:	7461                	lui	s0,0xffff8
 164:	63696d6f          	jal	s10,9679a <_hart_stack_size+0x95f9a>
 168:	315f 3731 3968      	0x39683731315f
 16e:	3365                	jal	ffffff16 <_stack_start+0xdfff7f16>
 170:	6631                	lui	a2,0xc
 172:	3539                	jal	ffffff80 <_stack_start+0xdfff7f80>
 174:	3061                	jal	fffff9fc <_stack_start+0xdfff79fc>
 176:	30386563          	bltu	a6,gp,480 <.Lline_table_start0+0x388>
 17a:	6138                	flw	fa4,64(a0)
 17c:	5f004563          	bgtz	a6,766 <.Lline_table_start0+0x66e>
 180:	6c5f 766c 5f6d      	0x5f6d766c6c5f
 186:	656d                	lui	a0,0x1b
 188:	6d6d                	lui	s10,0x1b
 18a:	5f65766f          	jal	a2,57780 <_hart_stack_size+0x56f80>
 18e:	6c65                	lui	s8,0x19
 190:	6d65                	lui	s10,0x19
 192:	6e65                	lui	t3,0x19
 194:	5f74                	lw	a3,124(a4)
 196:	6e75                	lui	t3,0x1d
 198:	6564726f          	jal	tp,477ee <_hart_stack_size+0x46fee>
 19c:	6572                	flw	fa0,28(sp)
 19e:	5f64                	lw	s1,124(a4)
 1a0:	7461                	lui	s0,0xffff8
 1a2:	63696d6f          	jal	s10,967d8 <_hart_stack_size+0x95fd8>
 1a6:	325f 6c00 6269      	0x62696c00325f
 1ac:	6172                	flw	ft2,28(sp)
 1ae:	7972                	flw	fs2,60(sp)
 1b0:	726f632f          	0x726f632f
 1b4:	2f65                	jal	96c <_hart_stack_size+0x16c>
 1b6:	2f637273          	csrrci	tp,0x2f6,6
 1ba:	696c                	flw	fa1,84(a0)
 1bc:	2e62                	fld	ft8,24(sp)
 1be:	7372                	flw	ft6,60(sp)
 1c0:	2f00                	fld	fs0,24(a4)
 1c2:	67726163          	bltu	tp,s7,824 <_hart_stack_size+0x24>
 1c6:	65722f6f          	jal	t5,2301c <_hart_stack_size+0x2281c>
 1ca:	74736967          	0x74736967
 1ce:	7972                	flw	fs2,60(sp)
 1d0:	6372732f          	0x6372732f
 1d4:	7469672f          	0x7469672f
 1d8:	7568                	flw	fa0,108(a0)
 1da:	2e62                	fld	ft8,24(sp)
 1dc:	2d6d6f63          	bltu	s10,s6,4ba <.Lline_table_start0+0x3c2>
 1e0:	6531                	lui	a0,0xc
 1e2:	32366363          	bltu	a2,gp,508 <.Lline_table_start0+0x410>
 1e6:	3939                	jal	fffffe04 <_stack_start+0xdfff7e04>
 1e8:	6264                	flw	fs1,68(a2)
 1ea:	6539                	lui	a0,0xe
 1ec:	33323863          	0x33323863
 1f0:	6d6f632f          	0x6d6f632f
 1f4:	6970                	flw	fa2,84(a0)
 1f6:	656c                	flw	fa1,76(a0)
 1f8:	5f72                	lw	t5,60(sp)
 1fa:	7562                	flw	fa0,56(sp)
 1fc:	6c69                	lui	s8,0x1a
 1fe:	6974                	flw	fa3,84(a0)
 200:	736e                	flw	ft6,248(sp)
 202:	302d                	jal	fffffa2c <_stack_start+0xdfff7a2c>
 204:	312e                	fld	ft2,232(sp)
 206:	332e                	fld	ft6,232(sp)
 208:	2f36                	fld	ft10,328(sp)
 20a:	2f637273          	csrrci	tp,0x2f6,6
 20e:	696c                	flw	fa1,84(a0)
 210:	2e62                	fld	ft8,24(sp)
 212:	7372                	flw	ft6,60(sp)
 214:	5f00                	lw	s0,56(a4)
 216:	4e5a                	lw	t3,148(sp)
 218:	3731                	jal	124 <.Lline_table_start0+0x2c>
 21a:	706d6f63          	bltu	s10,t1,938 <_hart_stack_size+0x138>
 21e:	6c69                	lui	s8,0x1a
 220:	7265                	lui	tp,0xffff9
 222:	625f 6975 746c      	0x746c6975625f
 228:	6e69                	lui	t3,0x1a
 22a:	656d3373          	csrrc	t1,0x656,s10
 22e:	336d                	jal	ffffffd8 <_stack_start+0xdfff7fd8>
 230:	6d31                	lui	s10,0xc
 232:	6d65                	lui	s10,0x19
 234:	5f746573          	csrrsi	a0,0x5f7,8
 238:	6c65                	lui	s8,0x19
 23a:	6d65                	lui	s10,0x19
 23c:	6e65                	lui	t3,0x19
 23e:	5f74                	lw	a3,124(a4)
 240:	6e75                	lui	t3,0x1d
 242:	6564726f          	jal	tp,47898 <_hart_stack_size+0x47098>
 246:	6572                	flw	fa0,28(sp)
 248:	5f64                	lw	s1,124(a4)
 24a:	7461                	lui	s0,0xffff8
 24c:	63696d6f          	jal	s10,96882 <_hart_stack_size+0x96082>
 250:	3731                	jal	15c <.Lline_table_start0+0x64>
 252:	3568                	fld	fa0,232(a0)
 254:	3062                	fld	ft0,56(sp)
 256:	6231                	lui	tp,0xc
 258:	3139                	jal	fffffe66 <_stack_start+0xdfff7e66>
 25a:	65626633          	0x65626633
 25e:	39663663          	0x39663663
 262:	4530                	lw	a2,72(a0)
 264:	4700                	lw	s0,8(a4)
 266:	554e                	lw	a0,240(sp)
 268:	4120                	lw	s0,64(a0)
 26a:	2e322053          	0x2e322053
 26e:	70003433          	0x70003433
 272:	6e61                	lui	t3,0x18
 274:	6369                	lui	t1,0x1a
 276:	676e696b          	0x676e696b
 27a:	5f00                	lw	s0,56(a4)
 27c:	4e5a                	lw	t3,148(sp)
 27e:	6334                	flw	fa3,64(a4)
 280:	3665726f          	jal	tp,575e6 <_hart_stack_size+0x56de6>
 284:	6974706f          	j	4811a <_hart_stack_size+0x4791a>
 288:	38316e6f          	jal	t3,16e0a <_hart_stack_size+0x1660a>
 28c:	7865                	lui	a6,0xffff9
 28e:	6570                	flw	fa2,76(a0)
 290:	6e5f7463          	bgeu	t5,t0,978 <_hart_stack_size+0x178>
 294:	5f656e6f          	jal	t3,5688a <_hart_stack_size+0x5608a>
 298:	6166                	flw	ft2,88(sp)
 29a:	6c69                	lui	s8,0x1a
 29c:	6465                	lui	s0,0x19
 29e:	3731                	jal	1aa <.Lline_table_start0+0xb2>
 2a0:	3868                	fld	fa0,240(s0)
 2a2:	65373037          	lui	zero,0x65373
 2a6:	39316663          	bltu	sp,s3,632 <.Lline_table_start0+0x53a>
 2aa:	3966                	fld	fs2,120(sp)
 2ac:	3764                	fld	fs1,232(a4)
 2ae:	6166                	flw	ft2,88(sp)
 2b0:	4566                	lw	a0,88(sp)
 2b2:	5f00                	lw	s0,56(a4)
 2b4:	6c5f 766c 5f6d      	0x5f6d766c6c5f
 2ba:	656d                	lui	a0,0x1b
 2bc:	6d6d                	lui	s10,0x1b
 2be:	5f65766f          	jal	a2,578b4 <_hart_stack_size+0x570b4>
 2c2:	6c65                	lui	s8,0x19
 2c4:	6d65                	lui	s10,0x19
 2c6:	6e65                	lui	t3,0x19
 2c8:	5f74                	lw	a3,124(a4)
 2ca:	6e75                	lui	t3,0x1d
 2cc:	6564726f          	jal	tp,47922 <_hart_stack_size+0x47122>
 2d0:	6572                	flw	fa0,28(sp)
 2d2:	5f64                	lw	s1,124(a4)
 2d4:	7461                	lui	s0,0xffff8
 2d6:	63696d6f          	jal	s10,9690c <_hart_stack_size+0x9610c>
 2da:	315f 5f00 4e5a      	0x4e5a5f00315f
 2e0:	3731                	jal	1ec <.Lline_table_start0+0xf4>
 2e2:	706d6f63          	bltu	s10,t1,a00 <_hart_stack_size+0x200>
 2e6:	6c69                	lui	s8,0x1a
 2e8:	7265                	lui	tp,0xffff9
 2ea:	625f 6975 746c      	0x746c6975625f
 2f0:	6e69                	lui	t3,0x1a
 2f2:	656d3373          	csrrc	t1,0x656,s10
 2f6:	346d                	jal	fffffda0 <_stack_start+0xdfff7da0>
 2f8:	5f31                	li	t5,-20
 2fa:	6c5f 766c 5f6d      	0x5f6d766c6c5f
 300:	656d                	lui	a0,0x1b
 302:	6d6d                	lui	s10,0x1b
 304:	5f65766f          	jal	a2,578fa <_hart_stack_size+0x570fa>
 308:	6c65                	lui	s8,0x19
 30a:	6d65                	lui	s10,0x19
 30c:	6e65                	lui	t3,0x19
 30e:	5f74                	lw	a3,124(a4)
 310:	6e75                	lui	t3,0x1d
 312:	6564726f          	jal	tp,47968 <_hart_stack_size+0x47168>
 316:	6572                	flw	fa0,28(sp)
 318:	5f64                	lw	s1,124(a4)
 31a:	7461                	lui	s0,0xffff8
 31c:	63696d6f          	jal	s10,96952 <_hart_stack_size+0x96152>
 320:	345f 3731 3068      	0x30683731345f
 326:	6666                	flw	fa2,88(sp)
 328:	61633063          	0x61633063
 32c:	6530                	flw	fa2,72(a0)
 32e:	3536                	fld	fa0,360(sp)
 330:	3065                	jal	fffffbd8 <_stack_start+0xdfff7bd8>
 332:	6664                	flw	fs1,76(a2)
 334:	5f004533          	0x5f004533
 338:	4e5a                	lw	t3,148(sp)
 33a:	3731                	jal	246 <.Lline_table_start0+0x14e>
 33c:	706d6f63          	bltu	s10,t1,a5a <_hart_stack_size+0x25a>
 340:	6c69                	lui	s8,0x1a
 342:	7265                	lui	tp,0xffff9
 344:	625f 6975 746c      	0x746c6975625f
 34a:	6e69                	lui	t3,0x1a
 34c:	656d3373          	csrrc	t1,0x656,s10
 350:	336d                	jal	fa <.Lline_table_start0+0x2>
 352:	6d32                	flw	fs10,12(sp)
 354:	6d65                	lui	s10,0x19
 356:	6f6d                	lui	t5,0x1b
 358:	6576                	flw	fa0,92(sp)
 35a:	655f 656c 656d      	0x656d656c655f
 360:	746e                	flw	fs0,248(sp)
 362:	755f 6f6e 6472      	0x64726f6e755f
 368:	7265                	lui	tp,0xffff9
 36a:	6465                	lui	s0,0x19
 36c:	615f 6f74 696d      	0x696d6f74615f
 372:	68373163          	0x68373163
 376:	6231                	lui	tp,0xc
 378:	6234                	flw	fa3,64(a2)
 37a:	64383437          	lui	s0,0x64383
 37e:	6362                	flw	ft6,24(sp)
 380:	3136                	fld	ft2,360(sp)
 382:	6338                	flw	fa4,64(a4)
 384:	6262                	flw	ft4,24(sp)
 386:	0045                	c.nop	17
 388:	6170                	flw	fa2,68(a0)
 38a:	696e                	flw	fs2,216(sp)
 38c:	6d665f63          	bge	a2,s6,a6a <_hart_stack_size+0x26a>
 390:	0074                	addi	a3,sp,12
 392:	5a5f 344e 6f63      	0x6f63344e5a5f
 398:	6572                	flw	fa0,28(sp)
 39a:	72747033          	0x72747033
 39e:	6339                	lui	t1,0xe
 3a0:	74736e6f          	jal	t3,372e6 <_hart_stack_size+0x36ae6>
 3a4:	705f 7274 3333      	0x33337274705f
 3aa:	245f 544c 6924      	0x6924544c245f
 3b0:	706d                	c.lui	zero,0xffffb
 3b2:	246c                	fld	fa1,200(s0)
 3b4:	3275                	jal	fffffd60 <_stack_start+0xdfff7d60>
 3b6:	2430                	fld	fa2,72(s0)
 3b8:	4224                	lw	s1,64(a2)
 3ba:	2450                	fld	fa2,136(s0)
 3bc:	736e6f63          	bltu	t3,s6,afa <_hart_stack_size+0x2fa>
 3c0:	2474                	fld	fa3,200(s0)
 3c2:	3275                	jal	fffffd6e <_stack_start+0xdfff7d6e>
 3c4:	2430                	fld	fa2,72(s0)
 3c6:	2454                	fld	fa3,136(s0)
 3c8:	33245447          	fmsub.d	fs0,fs0,fs2,ft6,unknown
 3cc:	6461                	lui	s0,0x18
 3ce:	3164                	fld	fs1,224(a0)
 3d0:	39396837          	lui	a6,0x39396
 3d4:	39373063          	0x39373063
 3d8:	6134                	flw	fa3,64(a0)
 3da:	30626463          	bltu	tp,t1,6e2 <.Lline_table_start0+0x5ea>
 3de:	3066                	fld	ft0,120(sp)
 3e0:	3830                	fld	fa2,112(s0)
 3e2:	0045                	c.nop	17
 3e4:	5a5f 344e 6f63      	0x6f63344e5a5f
 3ea:	6572                	flw	fa0,28(sp)
 3ec:	6f36                	flw	ft10,76(sp)
 3ee:	7470                	flw	fa2,108(s0)
 3f0:	6f69                	lui	t5,0x1a
 3f2:	316e                	fld	ft2,248(sp)
 3f4:	70786533          	0x70786533
 3f8:	6365                	lui	t1,0x19
 3fa:	5f74                	lw	a3,124(a4)
 3fc:	6166                	flw	ft2,88(sp)
 3fe:	6c69                	lui	s8,0x1a
 400:	6465                	lui	s0,0x19
 402:	3731                	jal	30e <.Lline_table_start0+0x216>
 404:	6668                	flw	fa0,76(a2)
 406:	3034                	fld	fa3,96(s0)
 408:	62363263          	0x62363263
 40c:	64653537          	lui	a0,0x64653
 410:	3032                	fld	ft0,296(sp)
 412:	3162                	fld	ft2,56(sp)
 414:	4561                	li	a0,24
 416:	5f00                	lw	s0,56(a4)
 418:	4e5a                	lw	t3,148(sp)
 41a:	3731                	jal	326 <.Lline_table_start0+0x22e>
 41c:	706d6f63          	bltu	s10,t1,b3a <_hart_stack_size+0x33a>
 420:	6c69                	lui	s8,0x1a
 422:	7265                	lui	tp,0xffff9
 424:	625f 6975 746c      	0x746c6975625f
 42a:	6e69                	lui	t3,0x1a
 42c:	656d3373          	csrrc	t1,0x656,s10
 430:	336d                	jal	1da <.Lline_table_start0+0xe2>
 432:	6d31                	lui	s10,0xc
 434:	6d65                	lui	s10,0x19
 436:	5f746573          	csrrsi	a0,0x5f7,8
 43a:	6c65                	lui	s8,0x19
 43c:	6d65                	lui	s10,0x19
 43e:	6e65                	lui	t3,0x19
 440:	5f74                	lw	a3,124(a4)
 442:	6e75                	lui	t3,0x1d
 444:	6564726f          	jal	tp,47a9a <_hart_stack_size+0x4729a>
 448:	6572                	flw	fa0,28(sp)
 44a:	5f64                	lw	s1,124(a4)
 44c:	7461                	lui	s0,0xffff8
 44e:	63696d6f          	jal	s10,96a84 <_hart_stack_size+0x96284>
 452:	3731                	jal	35e <.Lline_table_start0+0x266>
 454:	6368                	flw	fa0,68(a4)
 456:	3138                	fld	fa4,96(a0)
 458:	34306137          	lui	sp,0x34306
 45c:	6265                	lui	tp,0x19
 45e:	6539                	lui	a0,0xe
 460:	6362                	flw	ft6,24(sp)
 462:	3832                	fld	fa6,296(sp)
 464:	4561                	li	a0,24
 466:	6d00                	flw	fs0,24(a0)
 468:	6d65                	lui	s10,0x19
 46a:	00797063          	bgeu	s2,t2,46a <.Lline_table_start0+0x372>
 46e:	5f5f 6c6c 6d76      	0x6d766c6c5f5f
 474:	6d5f 6d65 6573      	0x65736d656d5f
 47a:	5f74                	lw	a3,124(a4)
 47c:	6c65                	lui	s8,0x19
 47e:	6d65                	lui	s10,0x19
 480:	6e65                	lui	t3,0x19
 482:	5f74                	lw	a3,124(a4)
 484:	6e75                	lui	t3,0x1d
 486:	6564726f          	jal	tp,47adc <_hart_stack_size+0x472dc>
 48a:	6572                	flw	fa0,28(sp)
 48c:	5f64                	lw	s1,124(a4)
 48e:	7461                	lui	s0,0xffff8
 490:	63696d6f          	jal	s10,96ac6 <_hart_stack_size+0x962c6>
 494:	315f 5f00 6c5f      	0x6c5f5f00315f
 49a:	766c                	flw	fa1,108(a2)
 49c:	5f6d                	li	t5,-5
 49e:	656d                	lui	a0,0x1b
 4a0:	736d                	lui	t1,0xffffb
 4a2:	7465                	lui	s0,0xffff9
 4a4:	655f 656c 656d      	0x656d656c655f
 4aa:	746e                	flw	fs0,248(sp)
 4ac:	755f 6f6e 6472      	0x64726f6e755f
 4b2:	7265                	lui	tp,0xffff9
 4b4:	6465                	lui	s0,0x19
 4b6:	615f 6f74 696d      	0x696d6f74615f
 4bc:	00325f63          	bge	tp,gp,4da <.Lline_table_start0+0x3e2>
 4c0:	5a5f 344e 6f63      	0x6f63344e5a5f
 4c6:	6572                	flw	fa0,28(sp)
 4c8:	7039                	c.lui	zero,0xfffee
 4ca:	6e61                	lui	t3,0x18
 4cc:	6369                	lui	t1,0x1a
 4ce:	676e696b          	0x676e696b
 4d2:	3831                	jal	fffffcee <_stack_start+0xdfff7cee>
 4d4:	6170                	flw	fa2,68(a0)
 4d6:	696e                	flw	fs2,216(sp)
 4d8:	6f625f63          	bge	tp,s6,bd6 <_hart_stack_size+0x3d6>
 4dc:	6e75                	lui	t3,0x1d
 4de:	7364                	flw	fs1,100(a4)
 4e0:	635f 6568 6b63      	0x6b636568635f
 4e6:	3731                	jal	3f2 <.Lline_table_start0+0x2fa>
 4e8:	6468                	flw	fa0,76(s0)
 4ea:	3262                	fld	ft4,56(sp)
 4ec:	3231                	jal	fffffdf8 <_stack_start+0xdfff7df8>
 4ee:	37333633          	0x37333633
 4f2:	3464                	fld	fs1,232(s0)
 4f4:	3365                	jal	29c <.Lline_table_start0+0x1a4>
 4f6:	3231                	jal	fffffe02 <_stack_start+0xdfff7e02>
 4f8:	4530                	lw	a2,72(a0)
 4fa:	6500                	flw	fs0,8(a0)
 4fc:	7078                	flw	fa4,100(s0)
 4fe:	6365                	lui	t1,0x19
 500:	5f74                	lw	a3,124(a4)
 502:	6f6e                	flw	ft10,216(sp)
 504:	656e                	flw	fa0,216(sp)
 506:	665f 6961 656c      	0x656c6961665f
 50c:	0064                	addi	s1,sp,12
 50e:	6461                	lui	s0,0x18
 510:	3c64                	fld	fs1,248(s0)
 512:	3875                	jal	fffffdce <_stack_start+0xdfff7dce>
 514:	003e                	c.slli	zero,0xf
 516:	656d                	lui	a0,0x1b
 518:	6d6d                	lui	s10,0x1b
 51a:	0065766f          	jal	a2,57520 <_hart_stack_size+0x56d20>
 51e:	5a5f 314e 6337      	0x6337314e5a5f
 524:	69706d6f          	jal	s10,73ba <_hart_stack_size+0x6bba>
 528:	656c                	flw	fa1,76(a0)
 52a:	5f72                	lw	t5,60(sp)
 52c:	7562                	flw	fa0,56(sp)
 52e:	6c69                	lui	s8,0x1a
 530:	6974                	flw	fa3,84(a0)
 532:	736e                	flw	ft6,248(sp)
 534:	6d656d33          	0x6d656d33
 538:	3134                	fld	fa3,96(a0)
 53a:	5f5f 6c6c 6d76      	0x6d766c6c5f5f
 540:	6d5f 6d65 6f6d      	0x6f6d6d656d5f
 546:	6576                	flw	fa0,92(sp)
 548:	655f 656c 656d      	0x656d656c655f
 54e:	746e                	flw	fs0,248(sp)
 550:	755f 6f6e 6472      	0x64726f6e755f
 556:	7265                	lui	tp,0xffff9
 558:	6465                	lui	s0,0x19
 55a:	615f 6f74 696d      	0x696d6f74615f
 560:	31325f63          	bge	tp,s3,87e <_hart_stack_size+0x7e>
 564:	30366837          	lui	a6,0x30366
 568:	3665                	jal	110 <.Lline_table_start0+0x18>
 56a:	6435                	lui	s0,0xd
 56c:	6361                	lui	t1,0x18
 56e:	33613637          	lui	a2,0x33613
 572:	6631                	lui	a2,0xc
 574:	3965                	jal	22c <.Lline_table_start0+0x134>
 576:	0045                	c.nop	17
 578:	7369722f          	0x7369722f
 57c:	722d7663          	bgeu	s10,sp,ca8 <_hart_stack_size+0x4a8>
 580:	0074                	addi	a3,sp,12
 582:	656d                	lui	a0,0x1b
 584:	636d                	lui	t1,0x1b
 586:	7970                	flw	fa2,116(a0)
 588:	655f 656c 656d      	0x656d656c655f
 58e:	746e                	flw	fs0,248(sp)
 590:	755f 6f6e 6472      	0x64726f6e755f
 596:	7265                	lui	tp,0xffff9
 598:	6465                	lui	s0,0x19
 59a:	615f 6f74 696d      	0x696d6f74615f
 5a0:	38753c63          	0x38753c63
 5a4:	003e                	c.slli	zero,0xf
 5a6:	5a5f 314e 6337      	0x6337314e5a5f
 5ac:	69706d6f          	jal	s10,7442 <_hart_stack_size+0x6c42>
 5b0:	656c                	flw	fa1,76(a0)
 5b2:	5f72                	lw	t5,60(sp)
 5b4:	7562                	flw	fa0,56(sp)
 5b6:	6c69                	lui	s8,0x1a
 5b8:	6974                	flw	fa3,84(a0)
 5ba:	736e                	flw	ft6,248(sp)
 5bc:	6d656d33          	0x6d656d33
 5c0:	3034                	fld	fa3,96(s0)
 5c2:	5f5f 6c6c 6d76      	0x6d766c6c5f5f
 5c8:	6d5f 6d65 6573      	0x65736d656d5f
 5ce:	5f74                	lw	a3,124(a4)
 5d0:	6c65                	lui	s8,0x19
 5d2:	6d65                	lui	s10,0x19
 5d4:	6e65                	lui	t3,0x19
 5d6:	5f74                	lw	a3,124(a4)
 5d8:	6e75                	lui	t3,0x1d
 5da:	6564726f          	jal	tp,47c30 <_hart_stack_size+0x47430>
 5de:	6572                	flw	fa0,28(sp)
 5e0:	5f64                	lw	s1,124(a4)
 5e2:	7461                	lui	s0,0xffff8
 5e4:	63696d6f          	jal	s10,96c1a <_hart_stack_size+0x9641a>
 5e8:	345f 3731 3668      	0x36683731345f
 5ee:	3966                	fld	fs2,120(sp)
 5f0:	6434                	flw	fa3,72(s0)
 5f2:	3461                	jal	7a <_heap_size+0x7a>
 5f4:	3535                	jal	420 <.Lline_table_start0+0x328>
 5f6:	3166                	fld	ft2,120(sp)
 5f8:	6566                	flw	fa0,88(sp)
 5fa:	45653433          	0x45653433
 5fe:	5f00                	lw	s0,56(a4)
 600:	4e5a                	lw	t3,148(sp)
 602:	3731                	jal	50e <.Lline_table_start0+0x416>
 604:	706d6f63          	bltu	s10,t1,d22 <_hart_stack_size+0x522>
 608:	6c69                	lui	s8,0x1a
 60a:	7265                	lui	tp,0xffff9
 60c:	625f 6975 746c      	0x746c6975625f
 612:	6e69                	lui	t3,0x1a
 614:	656d3373          	csrrc	t1,0x656,s10
 618:	336d                	jal	3c2 <.Lline_table_start0+0x2ca>
 61a:	6d32                	flw	fs10,12(sp)
 61c:	6d65                	lui	s10,0x19
 61e:	6f6d                	lui	t5,0x1b
 620:	6576                	flw	fa0,92(sp)
 622:	655f 656c 656d      	0x656d656c655f
 628:	746e                	flw	fs0,248(sp)
 62a:	755f 6f6e 6472      	0x64726f6e755f
 630:	7265                	lui	tp,0xffff9
 632:	6465                	lui	s0,0x19
 634:	615f 6f74 696d      	0x696d6f74615f
 63a:	68373163          	0x68373163
 63e:	3139                	jal	24c <.Lline_table_start0+0x154>
 640:	6561                	lui	a0,0x18
 642:	39393033          	0x39393033
 646:	6531                	lui	a0,0xc
 648:	3136                	fld	ft2,360(sp)
 64a:	3264                	fld	fs1,224(a2)
 64c:	3635                	jal	178 <.Lline_table_start0+0x80>
 64e:	0045                	c.nop	17
 650:	5a5f 314e 6337      	0x6337314e5a5f
 656:	69706d6f          	jal	s10,74ec <_hart_stack_size+0x6cec>
 65a:	656c                	flw	fa1,76(a0)
 65c:	5f72                	lw	t5,60(sp)
 65e:	7562                	flw	fa0,56(sp)
 660:	6c69                	lui	s8,0x1a
 662:	6974                	flw	fa3,84(a0)
 664:	736e                	flw	ft6,248(sp)
 666:	6d656d33          	0x6d656d33
 66a:	3034                	fld	fa3,96(s0)
 66c:	5f5f 6c6c 6d76      	0x6d766c6c5f5f
 672:	6d5f 6d65 6573      	0x65736d656d5f
 678:	5f74                	lw	a3,124(a4)
 67a:	6c65                	lui	s8,0x19
 67c:	6d65                	lui	s10,0x19
 67e:	6e65                	lui	t3,0x19
 680:	5f74                	lw	a3,124(a4)
 682:	6e75                	lui	t3,0x1d
 684:	6564726f          	jal	tp,47cda <_hart_stack_size+0x474da>
 688:	6572                	flw	fa0,28(sp)
 68a:	5f64                	lw	s1,124(a4)
 68c:	7461                	lui	s0,0xffff8
 68e:	63696d6f          	jal	s10,96cc4 <_hart_stack_size+0x964c4>
 692:	325f 3731 6268      	0x62683731325f
 698:	3862                	fld	fa6,56(sp)
 69a:	6232                	flw	ft4,12(sp)
 69c:	6561                	lui	a0,0x18
 69e:	6165                	addi	sp,sp,112
 6a0:	3161                	jal	328 <.Lline_table_start0+0x230>
 6a2:	6361                	lui	t1,0x18
 6a4:	45316133          	0x45316133
 6a8:	6d00                	flw	fs0,24(a0)
 6aa:	6d65                	lui	s10,0x19
 6ac:	5f746573          	csrrsi	a0,0x5f7,8
 6b0:	6c65                	lui	s8,0x19
 6b2:	6d65                	lui	s10,0x19
 6b4:	6e65                	lui	t3,0x19
 6b6:	5f74                	lw	a3,124(a4)
 6b8:	6e75                	lui	t3,0x1d
 6ba:	6564726f          	jal	tp,47d10 <_hart_stack_size+0x47510>
 6be:	6572                	flw	fa0,28(sp)
 6c0:	5f64                	lw	s1,124(a4)
 6c2:	7461                	lui	s0,0xffff8
 6c4:	63696d6f          	jal	s10,96cfa <_hart_stack_size+0x964fa>
 6c8:	753c                	flw	fa5,104(a0)
 6ca:	003e3233          	sltu	tp,t3,gp
 6ce:	5f5f 6c6c 6d76      	0x6d766c6c5f5f
 6d4:	6d5f 6d65 6f6d      	0x6f6d6d656d5f
 6da:	6576                	flw	fa0,92(sp)
 6dc:	655f 656c 656d      	0x656d656c655f
 6e2:	746e                	flw	fs0,248(sp)
 6e4:	755f 6f6e 6472      	0x64726f6e755f
 6ea:	7265                	lui	tp,0xffff9
 6ec:	6465                	lui	s0,0x19
 6ee:	615f 6f74 696d      	0x696d6f74615f
 6f4:	00345f63          	bge	s0,gp,712 <.Lline_table_start0+0x61a>
 6f8:	5a5f 314e 6337      	0x6337314e5a5f
 6fe:	69706d6f          	jal	s10,7594 <_hart_stack_size+0x6d94>
 702:	656c                	flw	fa1,76(a0)
 704:	5f72                	lw	t5,60(sp)
 706:	7562                	flw	fa0,56(sp)
 708:	6c69                	lui	s8,0x1a
 70a:	6974                	flw	fa3,84(a0)
 70c:	736e                	flw	ft6,248(sp)
 70e:	6d656d33          	0x6d656d33
 712:	656d3133          	0x656d3133
 716:	636d                	lui	t1,0x1b
 718:	7970                	flw	fa2,116(a0)
 71a:	655f 656c 656d      	0x656d656c655f
 720:	746e                	flw	fs0,248(sp)
 722:	755f 6f6e 6472      	0x64726f6e755f
 728:	7265                	lui	tp,0xffff9
 72a:	6465                	lui	s0,0x19
 72c:	615f 6f74 696d      	0x696d6f74615f
 732:	68373163          	0x68373163
 736:	3664                	fld	fs1,232(a2)
 738:	3564                	fld	fs1,232(a0)
 73a:	3964                	fld	fs1,240(a0)
 73c:	3966                	fld	fs2,120(sp)
 73e:	3736                	fld	fa4,360(sp)
 740:	3938                	fld	fa4,112(a0)
 742:	6461                	lui	s0,0x18
 744:	6530                	flw	fa2,72(a0)
 746:	0045                	c.nop	17
 748:	5a5f 314e 6337      	0x6337314e5a5f
 74e:	69706d6f          	jal	s10,75e4 <_hart_stack_size+0x6de4>
 752:	656c                	flw	fa1,76(a0)
 754:	5f72                	lw	t5,60(sp)
 756:	7562                	flw	fa0,56(sp)
 758:	6c69                	lui	s8,0x1a
 75a:	6974                	flw	fa3,84(a0)
 75c:	736e                	flw	ft6,248(sp)
 75e:	6d656d33          	0x6d656d33
 762:	656d3133          	0x656d3133
 766:	636d                	lui	t1,0x1b
 768:	7970                	flw	fa2,116(a0)
 76a:	655f 656c 656d      	0x656d656c655f
 770:	746e                	flw	fs0,248(sp)
 772:	755f 6f6e 6472      	0x64726f6e755f
 778:	7265                	lui	tp,0xffff9
 77a:	6465                	lui	s0,0x19
 77c:	615f 6f74 696d      	0x696d6f74615f
 782:	68373163          	0x68373163
 786:	6466                	flw	fs0,88(sp)
 788:	33303133          	0x33303133
 78c:	3530                	fld	fa2,104(a0)
 78e:	66613863          	0x66613863
 792:	35346237          	lui	tp,0x35346
 796:	0045                	c.nop	17
 798:	656d                	lui	a0,0x1b
 79a:	6d6d                	lui	s10,0x1b
 79c:	5f65766f          	jal	a2,57d92 <_hart_stack_size+0x57592>
 7a0:	6c65                	lui	s8,0x19
 7a2:	6d65                	lui	s10,0x19
 7a4:	6e65                	lui	t3,0x19
 7a6:	5f74                	lw	a3,124(a4)
 7a8:	6e75                	lui	t3,0x1d
 7aa:	6564726f          	jal	tp,47e00 <_hart_stack_size+0x47600>
 7ae:	6572                	flw	fa0,28(sp)
 7b0:	5f64                	lw	s1,124(a4)
 7b2:	7461                	lui	s0,0xffff8
 7b4:	63696d6f          	jal	s10,96dea <_hart_stack_size+0x965ea>
 7b8:	753c                	flw	fa5,104(a0)
 7ba:	003e3233          	sltu	tp,t3,gp
 7be:	7470                	flw	fa2,108(s0)
 7c0:	0072                	c.slli	zero,0x1c
 7c2:	6d697b7b          	0x6d697b7b
 7c6:	6c70                	flw	fa2,92(s0)
 7c8:	7d7d                	lui	s10,0xfffff
 7ca:	6d00                	flw	fs0,24(a0)
 7cc:	6d65                	lui	s10,0x19
 7ce:	00746573          	csrrsi	a0,0x7,8
 7d2:	5a5f 344e 6f63      	0x6f63344e5a5f
 7d8:	6572                	flw	fa0,28(sp)
 7da:	7039                	c.lui	zero,0xfffee
 7dc:	6e61                	lui	t3,0x18
 7de:	6369                	lui	t1,0x1a
 7e0:	676e696b          	0x676e696b
 7e4:	7035                	c.lui	zero,0xfffed
 7e6:	6e61                	lui	t3,0x18
 7e8:	6369                	lui	t1,0x1a
 7ea:	3731                	jal	6f6 <.Lline_table_start0+0x5fe>
 7ec:	3768                	fld	fa0,232(a4)
 7ee:	6635                	lui	a2,0xd
 7f0:	3234                	fld	fa3,96(a2)
 7f2:	62653033          	0x62653033
 7f6:	3335                	jal	522 <.Lline_table_start0+0x42a>
 7f8:	3434                	fld	fa3,104(s0)
 7fa:	45343837          	lui	a6,0x45343
 7fe:	5f00                	lw	s0,56(a4)
 800:	4e5a                	lw	t3,148(sp)
 802:	3731                	jal	70e <.Lline_table_start0+0x616>
 804:	706d6f63          	bltu	s10,t1,f22 <_hart_stack_size+0x722>
 808:	6c69                	lui	s8,0x1a
 80a:	7265                	lui	tp,0xffff9
 80c:	625f 6975 746c      	0x746c6975625f
 812:	6e69                	lui	t3,0x1a
 814:	656d3373          	csrrc	t1,0x656,s10
 818:	336d                	jal	5c2 <.Lline_table_start0+0x4ca>
 81a:	6d31                	lui	s10,0xc
 81c:	6d65                	lui	s10,0x19
 81e:	5f797063          	bgeu	s2,s7,dfe <_hart_stack_size+0x5fe>
 822:	6c65                	lui	s8,0x19
 824:	6d65                	lui	s10,0x19
 826:	6e65                	lui	t3,0x19
 828:	5f74                	lw	a3,124(a4)
 82a:	6e75                	lui	t3,0x1d
 82c:	6564726f          	jal	tp,47e82 <_hart_stack_size+0x47682>
 830:	6572                	flw	fa0,28(sp)
 832:	5f64                	lw	s1,124(a4)
 834:	7461                	lui	s0,0xffff8
 836:	63696d6f          	jal	s10,96e6c <_hart_stack_size+0x9666c>
 83a:	3731                	jal	746 <.Lline_table_start0+0x64e>
 83c:	3568                	fld	fa0,232(a0)
 83e:	3332                	fld	ft6,296(sp)
 840:	6565                	lui	a0,0x19
 842:	3032                	fld	ft0,296(sp)
 844:	3365                	jal	5ec <.Lline_table_start0+0x4f4>
 846:	3031                	jal	52 <_heap_size+0x52>
 848:	3032                	fld	ft0,296(sp)
 84a:	3531                	jal	656 <.Lline_table_start0+0x55e>
 84c:	6d004533          	0x6d004533
 850:	6d65                	lui	s10,0x19
 852:	5f797063          	bgeu	s2,s7,e32 <_hart_stack_size+0x632>
 856:	6c65                	lui	s8,0x19
 858:	6d65                	lui	s10,0x19
 85a:	6e65                	lui	t3,0x19
 85c:	5f74                	lw	a3,124(a4)
 85e:	6e75                	lui	t3,0x1d
 860:	6564726f          	jal	tp,47eb6 <_hart_stack_size+0x476b6>
 864:	6572                	flw	fa0,28(sp)
 866:	5f64                	lw	s1,124(a4)
 868:	7461                	lui	s0,0xffff8
 86a:	63696d6f          	jal	s10,96ea0 <_hart_stack_size+0x966a0>
 86e:	753c                	flw	fa5,104(a0)
 870:	003e3233          	sltu	tp,t3,gp
 874:	5a5f 314e 6337      	0x6337314e5a5f
 87a:	69706d6f          	jal	s10,7710 <_hart_stack_size+0x6f10>
 87e:	656c                	flw	fa1,76(a0)
 880:	5f72                	lw	t5,60(sp)
 882:	7562                	flw	fa0,56(sp)
 884:	6c69                	lui	s8,0x1a
 886:	6974                	flw	fa3,84(a0)
 888:	736e                	flw	ft6,248(sp)
 88a:	6d656d33          	0x6d656d33
 88e:	656d3233          	0x656d3233
 892:	6d6d                	lui	s10,0x1b
 894:	5f65766f          	jal	a2,57e8a <_hart_stack_size+0x5768a>
 898:	6c65                	lui	s8,0x19
 89a:	6d65                	lui	s10,0x19
 89c:	6e65                	lui	t3,0x19
 89e:	5f74                	lw	a3,124(a4)
 8a0:	6e75                	lui	t3,0x1d
 8a2:	6564726f          	jal	tp,47ef8 <_hart_stack_size+0x476f8>
 8a6:	6572                	flw	fa0,28(sp)
 8a8:	5f64                	lw	s1,124(a4)
 8aa:	7461                	lui	s0,0xffff8
 8ac:	63696d6f          	jal	s10,96ee2 <_hart_stack_size+0x966e2>
 8b0:	3731                	jal	7bc <.Lline_table_start0+0x6c4>
 8b2:	3268                	fld	fa0,224(a2)
 8b4:	3866                	fld	fa6,120(sp)
 8b6:	6265                	lui	tp,0x19
 8b8:	30353833          	0x30353833
 8bc:	3566                	fld	fa0,120(sp)
 8be:	3831                	jal	da <_heap_size+0xda>
 8c0:	45383363          	0x45383363
 8c4:	6d00                	flw	fs0,24(a0)
 8c6:	6d65                	lui	s10,0x19
 8c8:	5f746573          	csrrsi	a0,0x5f7,8
 8cc:	6c65                	lui	s8,0x19
 8ce:	6d65                	lui	s10,0x19
 8d0:	6e65                	lui	t3,0x19
 8d2:	5f74                	lw	a3,124(a4)
 8d4:	6e75                	lui	t3,0x1d
 8d6:	6564726f          	jal	tp,47f2c <_hart_stack_size+0x4772c>
 8da:	6572                	flw	fa0,28(sp)
 8dc:	5f64                	lw	s1,124(a4)
 8de:	7461                	lui	s0,0xffff8
 8e0:	63696d6f          	jal	s10,96f16 <_hart_stack_size+0x96716>
 8e4:	753c                	flw	fa5,104(a0)
 8e6:	3631                	jal	3f2 <.Lline_table_start0+0x2fa>
 8e8:	003e                	c.slli	zero,0xf
 8ea:	5f5f 6c6c 6d76      	0x6d766c6c5f5f
 8f0:	6d5f 6d65 7063      	0x70636d656d5f
 8f6:	5f79                	li	t5,-2
 8f8:	6c65                	lui	s8,0x19
 8fa:	6d65                	lui	s10,0x19
 8fc:	6e65                	lui	t3,0x19
 8fe:	5f74                	lw	a3,124(a4)
 900:	6e75                	lui	t3,0x1d
 902:	6564726f          	jal	tp,47f58 <_hart_stack_size+0x47758>
 906:	6572                	flw	fa0,28(sp)
 908:	5f64                	lw	s1,124(a4)
 90a:	7461                	lui	s0,0xffff8
 90c:	63696d6f          	jal	s10,96f42 <_hart_stack_size+0x96742>
 910:	315f 6300 6d6f      	0x6d6f6300315f
 916:	6970                	flw	fa2,84(a0)
 918:	656c                	flw	fa1,76(a0)
 91a:	5f72                	lw	t5,60(sp)
 91c:	7562                	flw	fa0,56(sp)
 91e:	6c69                	lui	s8,0x1a
 920:	6974                	flw	fa3,84(a0)
 922:	736e                	flw	ft6,248(sp)
 924:	6d00                	flw	fs0,24(a0)
 926:	6d65                	lui	s10,0x19
 928:	6f6d                	lui	t5,0x1b
 92a:	6576                	flw	fa0,92(sp)
 92c:	655f 656c 656d      	0x656d656c655f
 932:	746e                	flw	fs0,248(sp)
 934:	755f 6f6e 6472      	0x64726f6e755f
 93a:	7265                	lui	tp,0xffff9
 93c:	6465                	lui	s0,0x19
 93e:	615f 6f74 696d      	0x696d6f74615f
 944:	38753c63          	0x38753c63
 948:	003e                	c.slli	zero,0xf
 94a:	7366666f          	jal	a2,67080 <_hart_stack_size+0x66880>
 94e:	7465                	lui	s0,0xffff9
 950:	753c                	flw	fa5,104(a0)
 952:	3e38                	fld	fa4,120(a2)
 954:	6d00                	flw	fs0,24(a0)
 956:	6d65                	lui	s10,0x19
 958:	6f6d                	lui	t5,0x1b
 95a:	6576                	flw	fa0,92(sp)
 95c:	655f 656c 656d      	0x656d656c655f
 962:	746e                	flw	fs0,248(sp)
 964:	755f 6f6e 6472      	0x64726f6e755f
 96a:	7265                	lui	tp,0xffff9
 96c:	6465                	lui	s0,0x19
 96e:	615f 6f74 696d      	0x696d6f74615f
 974:	31753c63          	0x31753c63
 978:	3e36                	fld	ft8,360(sp)
 97a:	6300                	flw	fs0,0(a4)
 97c:	0065726f          	jal	tp,57982 <_hart_stack_size+0x57182>
 980:	7865                	lui	a6,0xffff9
 982:	6570                	flw	fa2,76(a0)
 984:	665f7463          	bgeu	t5,t0,fec <_hart_stack_size+0x7ec>
 988:	6961                	lui	s2,0x18
 98a:	656c                	flw	fa1,76(a0)
 98c:	0064                	addi	s1,sp,12
 98e:	656d                	lui	a0,0x1b
 990:	006d                	c.nop	27
 992:	5a5f 314e 6337      	0x6337314e5a5f
 998:	69706d6f          	jal	s10,782e <_hart_stack_size+0x702e>
 99c:	656c                	flw	fa1,76(a0)
 99e:	5f72                	lw	t5,60(sp)
 9a0:	7562                	flw	fa0,56(sp)
 9a2:	6c69                	lui	s8,0x1a
 9a4:	6974                	flw	fa3,84(a0)
 9a6:	736e                	flw	ft6,248(sp)
 9a8:	6d656d33          	0x6d656d33
 9ac:	3034                	fld	fa3,96(s0)
 9ae:	5f5f 6c6c 6d76      	0x6d766c6c5f5f
 9b4:	6d5f 6d65 6573      	0x65736d656d5f
 9ba:	5f74                	lw	a3,124(a4)
 9bc:	6c65                	lui	s8,0x19
 9be:	6d65                	lui	s10,0x19
 9c0:	6e65                	lui	t3,0x19
 9c2:	5f74                	lw	a3,124(a4)
 9c4:	6e75                	lui	t3,0x1d
 9c6:	6564726f          	jal	tp,4801c <_hart_stack_size+0x4781c>
 9ca:	6572                	flw	fa0,28(sp)
 9cc:	5f64                	lw	s1,124(a4)
 9ce:	7461                	lui	s0,0xffff8
 9d0:	63696d6f          	jal	s10,97006 <_hart_stack_size+0x96806>
 9d4:	315f 3731 3668      	0x36683731315f
 9da:	3265                	jal	382 <.Lline_table_start0+0x28a>
 9dc:	3732                	fld	fa4,296(sp)
 9de:	3231                	jal	2ea <.Lline_table_start0+0x1f2>
 9e0:	62316333          	0x62316333
 9e4:	3634                	fld	fa3,104(a2)
 9e6:	3935                	jal	622 <.Lline_table_start0+0x52a>
 9e8:	4536                	lw	a0,76(sp)
 9ea:	7000                	flw	fs0,32(s0)
 9ec:	6e61                	lui	t3,0x18
 9ee:	6369                	lui	t1,0x1a
 9f0:	5f00                	lw	s0,56(a4)
 9f2:	4e5a                	lw	t3,148(sp)
 9f4:	6334                	flw	fa3,64(a4)
 9f6:	3965726f          	jal	tp,57d8c <_hart_stack_size+0x5758c>
 9fa:	6170                	flw	fa2,68(a0)
 9fc:	696e                	flw	fs2,216(sp)
 9fe:	6e696b63          	bltu	s2,t1,10f4 <_hart_stack_size+0x8f4>
 a02:	61703967          	0x61703967
 a06:	696e                	flw	fs2,216(sp)
 a08:	6d665f63          	bge	a2,s6,10e6 <_hart_stack_size+0x8e6>
 a0c:	3174                	fld	fa3,224(a0)
 a0e:	36616837          	lui	a6,0x36616
 a12:	6134                	flw	fa3,64(a0)
 a14:	3132                	fld	ft2,296(sp)
 a16:	6231                	lui	tp,0xc
 a18:	6564                	flw	fs1,76(a0)
 a1a:	3966                	fld	fs2,120(sp)
 a1c:	3936                	fld	fs2,360(sp)
 a1e:	6465                	lui	s0,0x19
 a20:	0045                	c.nop	17
 a22:	656d                	lui	a0,0x1b
 a24:	636d                	lui	t1,0x1b
 a26:	706d                	c.lui	zero,0xffffb
 a28:	6200                	flw	fs0,0(a2)
 a2a:	00706d63          	bltu	zero,t2,a44 <_hart_stack_size+0x244>
 a2e:	6568632f          	0x6568632f
 a32:	756f6b63          	bltu	t5,s6,1188 <_hart_stack_size+0x988>
 a36:	2f74                	fld	fa3,216(a4)
 a38:	2f6a626f          	jal	tp,a6d2e <_hart_stack_size+0xa652e>
 a3c:	7562                	flw	fa0,56(sp)
 a3e:	6c69                	lui	s8,0x1a
 a40:	2f64                	fld	fs1,216(a4)
 a42:	3878                	fld	fa4,240(s0)
 a44:	5f36                	lw	t5,108(sp)
 a46:	3436                	fld	fs0,360(sp)
 a48:	752d                	lui	a0,0xfffeb
 a4a:	6b6e                	flw	fs6,216(sp)
 a4c:	6f6e                	flw	ft10,216(sp)
 a4e:	6c2d6e77          	0x6c2d6e77
 a52:	6e69                	lui	t3,0x1a
 a54:	7875                	lui	a6,0xffffd
 a56:	672d                	lui	a4,0xb
 a58:	756e                	flw	fa0,248(sp)
 a5a:	6174732f          	0x6174732f
 a5e:	2d326567          	0x2d326567
 a62:	2f647473          	csrrci	s0,0x2f6,8
 a66:	6972                	flw	fs2,28(sp)
 a68:	33766373          	csrrsi	t1,mhpmevent23,12
 a6c:	6932                	flw	fs2,12(sp)
 a6e:	616d                	addi	sp,sp,240
 a70:	6e752d63          	0x6e752d63
 a74:	776f6e6b          	0x776f6e6b
 a78:	2d6e                	fld	fs10,216(sp)
 a7a:	6f6e                	flw	ft10,216(sp)
 a7c:	656e                	flw	fa0,216(sp)
 a7e:	652d                	lui	a0,0xb
 a80:	666c                	flw	fa1,76(a2)
 a82:	6c65722f          	0x6c65722f
 a86:	6165                	addi	sp,sp,112
 a88:	642f6573          	csrrsi	a0,0x642,30
 a8c:	7065                	c.lui	zero,0xffff9
 a8e:	5a5f0073          	0x5a5f0073
 a92:	314e                	fld	ft2,240(sp)
 a94:	6d6f6337          	lui	t1,0x6d6f6
 a98:	6970                	flw	fa2,84(a0)
 a9a:	656c                	flw	fa1,76(a0)
 a9c:	5f72                	lw	t5,60(sp)
 a9e:	7562                	flw	fa0,56(sp)
 aa0:	6c69                	lui	s8,0x1a
 aa2:	6974                	flw	fa3,84(a0)
 aa4:	736e                	flw	ft6,248(sp)
 aa6:	6d656d33          	0x6d656d33
 aaa:	3034                	fld	fa3,96(s0)
 aac:	5f5f 6c6c 6d76      	0x6d766c6c5f5f
 ab2:	6d5f 6d65 7063      	0x70636d656d5f
 ab8:	5f79                	li	t5,-2
 aba:	6c65                	lui	s8,0x19
 abc:	6d65                	lui	s10,0x19
 abe:	6e65                	lui	t3,0x19
 ac0:	5f74                	lw	a3,124(a4)
 ac2:	6e75                	lui	t3,0x1d
 ac4:	6564726f          	jal	tp,4811a <_hart_stack_size+0x4791a>
 ac8:	6572                	flw	fa0,28(sp)
 aca:	5f64                	lw	s1,124(a4)
 acc:	7461                	lui	s0,0xffff8
 ace:	63696d6f          	jal	s10,97104 <_hart_stack_size+0x96904>
 ad2:	325f 3731 3568      	0x35683731325f
 ad8:	3334                	fld	fa3,96(a4)
 ada:	3030                	fld	fa2,96(s0)
 adc:	6164                	flw	fs1,68(a0)
 ade:	3364                	fld	fs1,224(a4)
 ae0:	3765                	jal	a88 <_hart_stack_size+0x288>
 ae2:	6332                	flw	ft6,12(sp)
 ae4:	45393563          	0x45393563
 ae8:	5f00                	lw	s0,56(a4)
 aea:	4e5a                	lw	t3,148(sp)
 aec:	3731                	jal	9f8 <_hart_stack_size+0x1f8>
 aee:	706d6f63          	bltu	s10,t1,120c <_hart_stack_size+0xa0c>
 af2:	6c69                	lui	s8,0x1a
 af4:	7265                	lui	tp,0xffff9
 af6:	625f 6975 746c      	0x746c6975625f
 afc:	6e69                	lui	t3,0x1a
 afe:	656d3373          	csrrc	t1,0x656,s10
 b02:	346d                	jal	5ac <.Lline_table_start0+0x4b4>
 b04:	5f31                	li	t5,-20
 b06:	6c5f 766c 5f6d      	0x5f6d766c6c5f
 b0c:	656d                	lui	a0,0x1b
 b0e:	6d6d                	lui	s10,0x1b
 b10:	5f65766f          	jal	a2,58106 <_hart_stack_size+0x57906>
 b14:	6c65                	lui	s8,0x19
 b16:	6d65                	lui	s10,0x19
 b18:	6e65                	lui	t3,0x19
 b1a:	5f74                	lw	a3,124(a4)
 b1c:	6e75                	lui	t3,0x1d
 b1e:	6564726f          	jal	tp,48174 <_hart_stack_size+0x47974>
 b22:	6572                	flw	fa0,28(sp)
 b24:	5f64                	lw	s1,124(a4)
 b26:	7461                	lui	s0,0xffff8
 b28:	63696d6f          	jal	s10,9715e <_hart_stack_size+0x9695e>
 b2c:	315f 3731 6268      	0x62683731315f
 b32:	38646133          	0x38646133
 b36:	3334                	fld	fa3,96(a4)
 b38:	3332                	fld	ft6,296(sp)
 b3a:	37393363          	0x37393363
 b3e:	45323763          	0x45323763
 b42:	6100                	flw	fs0,0(a0)
 b44:	532e6d73          	csrrsi	s10,0x532,28
 b48:	6d00                	flw	fs0,24(a0)
 b4a:	6d65                	lui	s10,0x19
 b4c:	5f797063          	bgeu	s2,s7,112c <_hart_stack_size+0x92c>
 b50:	6c65                	lui	s8,0x19
 b52:	6d65                	lui	s10,0x19
 b54:	6e65                	lui	t3,0x19
 b56:	5f74                	lw	a3,124(a4)
 b58:	6e75                	lui	t3,0x1d
 b5a:	6564726f          	jal	tp,481b0 <_hart_stack_size+0x479b0>
 b5e:	6572                	flw	fa0,28(sp)
 b60:	5f64                	lw	s1,124(a4)
 b62:	7461                	lui	s0,0xffff8
 b64:	63696d6f          	jal	s10,9719a <_hart_stack_size+0x9699a>
 b68:	753c                	flw	fa5,104(a0)
 b6a:	3631                	jal	676 <.Lline_table_start0+0x57e>
 b6c:	003e                	c.slli	zero,0xf
 b6e:	736e6f63          	bltu	t3,s6,12ac <_hart_stack_size+0xaac>
 b72:	5f74                	lw	a3,124(a4)
 b74:	7470                	flw	fa2,108(s0)
 b76:	0072                	c.slli	zero,0x1c
 b78:	5f5f 6c6c 6d76      	0x6d766c6c5f5f
 b7e:	6d5f 6d65 7063      	0x70636d656d5f
 b84:	5f79                	li	t5,-2
 b86:	6c65                	lui	s8,0x19
 b88:	6d65                	lui	s10,0x19
 b8a:	6e65                	lui	t3,0x19
 b8c:	5f74                	lw	a3,124(a4)
 b8e:	6e75                	lui	t3,0x1d
 b90:	6564726f          	jal	tp,481e6 <_hart_stack_size+0x479e6>
 b94:	6572                	flw	fa0,28(sp)
 b96:	5f64                	lw	s1,124(a4)
 b98:	7461                	lui	s0,0xffff8
 b9a:	63696d6f          	jal	s10,971d0 <_hart_stack_size+0x969d0>
 b9e:	325f 6d00 6d65      	0x6d656d00325f
 ba4:	5f746573          	csrrsi	a0,0x5f7,8
 ba8:	6c65                	lui	s8,0x19
 baa:	6d65                	lui	s10,0x19
 bac:	6e65                	lui	t3,0x19
 bae:	5f74                	lw	a3,124(a4)
 bb0:	6e75                	lui	t3,0x1d
 bb2:	6564726f          	jal	tp,48208 <_hart_stack_size+0x47a08>
 bb6:	6572                	flw	fa0,28(sp)
 bb8:	5f64                	lw	s1,124(a4)
 bba:	7461                	lui	s0,0xffff8
 bbc:	63696d6f          	jal	s10,971f2 <_hart_stack_size+0x969f2>
 bc0:	753c                	flw	fa5,104(a0)
 bc2:	3e38                	fld	fa4,120(a2)
 bc4:	6f00                	flw	fs0,24(a4)
 bc6:	7470                	flw	fa2,108(s0)
 bc8:	6f69                	lui	t5,0x1a
 bca:	006e                	c.slli	zero,0x1b
 bcc:	5f5f 6c6c 6d76      	0x6d766c6c5f5f
 bd2:	6d5f 6d65 6573      	0x65736d656d5f
 bd8:	5f74                	lw	a3,124(a4)
 bda:	6c65                	lui	s8,0x19
 bdc:	6d65                	lui	s10,0x19
 bde:	6e65                	lui	t3,0x19
 be0:	5f74                	lw	a3,124(a4)
 be2:	6e75                	lui	t3,0x1d
 be4:	6564726f          	jal	tp,4823a <_hart_stack_size+0x47a3a>
 be8:	6572                	flw	fa0,28(sp)
 bea:	5f64                	lw	s1,124(a4)
 bec:	7461                	lui	s0,0xffff8
 bee:	63696d6f          	jal	s10,97224 <_hart_stack_size+0x96a24>
 bf2:	345f 5f00 4e5a      	0x4e5a5f00345f
 bf8:	6334                	flw	fa3,64(a4)
 bfa:	3365726f          	jal	tp,57f30 <_hart_stack_size+0x57730>
 bfe:	7470                	flw	fa2,108(s0)
 c00:	3972                	fld	fs2,312(sp)
 c02:	736e6f63          	bltu	t3,s6,1340 <_hart_stack_size+0xb40>
 c06:	5f74                	lw	a3,124(a4)
 c08:	7470                	flw	fa2,108(s0)
 c0a:	3372                	fld	ft6,312(sp)
 c0c:	4c245f33          	0x4c245f33
 c10:	2454                	fld	fa3,136(s0)
 c12:	6d69                	lui	s10,0x1a
 c14:	6c70                	flw	fa2,92(s0)
 c16:	7524                	flw	fs1,104(a0)
 c18:	3032                	fld	ft0,296(sp)
 c1a:	2424                	fld	fs1,72(s0)
 c1c:	5042                	0x5042
 c1e:	6324                	flw	fs1,64(a4)
 c20:	74736e6f          	jal	t3,37b66 <_hart_stack_size+0x37366>
 c24:	7524                	flw	fs1,104(a0)
 c26:	3032                	fld	ft0,296(sp)
 c28:	5424                	lw	s1,104(s0)
 c2a:	4724                	lw	s1,72(a4)
 c2c:	2454                	fld	fa3,136(s0)
 c2e:	6f36                	flw	ft10,76(sp)
 c30:	6666                	flw	fa2,88(sp)
 c32:	31746573          	csrrsi	a0,0x317,8
 c36:	61356837          	lui	a6,0x61356
 c3a:	35313563          	0x35313563
 c3e:	3465                	jal	6e6 <.Lline_table_start0+0x5ee>
 c40:	3966                	fld	fs2,120(sp)
 c42:	6439                	lui	s0,0xe
 c44:	3332                	fld	ft6,296(sp)
 c46:	3666                	fld	fa2,120(sp)
 c48:	0045                	c.nop	17

Disassembly of section .debug_pubnames:

00000000 <.debug_pubnames>:
   0:	0088                	addi	a0,sp,64
   2:	0000                	unimp
   4:	0002                	c.slli64	zero
   6:	0000                	unimp
   8:	0000                	unimp
   a:	00a4                	addi	s1,sp,72
   c:	0000                	unimp
   e:	005a                	c.slli	zero,0x16
  10:	0000                	unimp
  12:	6170                	flw	fa2,68(a0)
  14:	696e                	flw	fs2,216(sp)
  16:	6d665f63          	bge	a2,s6,6f4 <.Lline_table_start0+0x5fc>
  1a:	0074                	addi	a3,sp,12
  1c:	0045                	c.nop	17
  1e:	0000                	unimp
  20:	6170                	flw	fa2,68(a0)
  22:	696e                	flw	fs2,216(sp)
  24:	6f625f63          	bge	tp,s6,722 <.Lline_table_start0+0x62a>
  28:	6e75                	lui	t3,0x1d
  2a:	7364                	flw	fs1,100(a4)
  2c:	635f 6568 6b63      	0x6b636568635f
  32:	2b00                	fld	fs0,16(a4)
  34:	0000                	unimp
  36:	7000                	flw	fs0,32(s0)
  38:	6e61                	lui	t3,0x18
  3a:	6369                	lui	t1,0x1a
  3c:	676e696b          	0x676e696b
  40:	2600                	fld	fs0,8(a2)
  42:	0000                	unimp
  44:	6300                	flw	fs0,0(a4)
  46:	0065726f          	jal	tp,5704c <_hart_stack_size+0x5684c>
  4a:	0070                	addi	a2,sp,12
  4c:	0000                	unimp
  4e:	6974706f          	j	47ee4 <_hart_stack_size+0x476e4>
  52:	30006e6f          	jal	t3,6352 <_hart_stack_size+0x5b52>
  56:	0000                	unimp
  58:	7000                	flw	fs0,32(s0)
  5a:	6e61                	lui	t3,0x18
  5c:	6369                	lui	t1,0x1a
  5e:	8b00                	0x8b00
  60:	0000                	unimp
  62:	6500                	flw	fs0,8(a0)
  64:	7078                	flw	fa4,100(s0)
  66:	6365                	lui	t1,0x19
  68:	5f74                	lw	a3,124(a4)
  6a:	6f6e                	flw	ft10,216(sp)
  6c:	656e                	flw	fa0,216(sp)
  6e:	665f 6961 656c      	0x656c6961665f
  74:	0064                	addi	s1,sp,12
  76:	0075                	c.nop	29
  78:	0000                	unimp
  7a:	7865                	lui	a6,0xffff9
  7c:	6570                	flw	fa2,76(a0)
  7e:	665f7463          	bgeu	t5,t0,6e6 <.Lline_table_start0+0x5ee>
  82:	6961                	lui	s2,0x18
  84:	656c                	flw	fa1,76(a0)
  86:	0064                	addi	s1,sp,12
  88:	0000                	unimp
  8a:	0000                	unimp
  8c:	03b2                	slli	t2,t2,0xc
  8e:	0000                	unimp
  90:	0002                	c.slli64	zero
  92:	00a4                	addi	s1,sp,72
  94:	0000                	unimp
  96:	000002ab          	0x2ab
  9a:	00c8                	addi	a0,sp,68
  9c:	0000                	unimp
  9e:	5f5f 6c6c 6d76      	0x6d766c6c5f5f
  a4:	6d5f 6d65 7063      	0x70636d656d5f
  aa:	5f79                	li	t5,-2
  ac:	6c65                	lui	s8,0x19
  ae:	6d65                	lui	s10,0x19
  b0:	6e65                	lui	t3,0x19
  b2:	5f74                	lw	a3,124(a4)
  b4:	6e75                	lui	t3,0x1d
  b6:	6564726f          	jal	tp,4770c <_hart_stack_size+0x46f0c>
  ba:	6572                	flw	fa0,28(sp)
  bc:	5f64                	lw	s1,124(a4)
  be:	7461                	lui	s0,0xffff8
  c0:	63696d6f          	jal	s10,966f6 <_hart_stack_size+0x95ef6>
  c4:	325f 8800 0002      	0x28800325f
  ca:	7b00                	flw	fs0,48(a4)
  cc:	706d697b          	0x706d697b
  d0:	7d6c                	flw	fa1,124(a0)
  d2:	007d                	c.nop	31
  d4:	0000006b          	0x6b
  d8:	6362                	flw	ft6,24(sp)
  da:	706d                	c.lui	zero,0xffffb
  dc:	fb00                	fsw	fs0,48(a4)
  de:	0000                	unimp
  e0:	5f00                	lw	s0,56(a4)
  e2:	6c5f 766c 5f6d      	0x5f6d766c6c5f
  e8:	656d                	lui	a0,0x1b
  ea:	636d                	lui	t1,0x1b
  ec:	7970                	flw	fa2,116(a0)
  ee:	655f 656c 656d      	0x656d656c655f
  f4:	746e                	flw	fs0,248(sp)
  f6:	755f 6f6e 6472      	0x64726f6e755f
  fc:	7265                	lui	tp,0xffff9
  fe:	6465                	lui	s0,0x19
 100:	615f 6f74 696d      	0x696d6f74615f
 106:	00345f63          	bge	s0,gp,124 <.Lline_table_start0+0x2c>
 10a:	0279                	addi	tp,tp,30
 10c:	0000                	unimp
 10e:	65726f63          	bltu	tp,s7,76c <.Lline_table_start0+0x674>
 112:	2e00                	fld	fs0,24(a2)
 114:	0001                	nop
 116:	5f00                	lw	s0,56(a4)
 118:	6c5f 766c 5f6d      	0x5f6d766c6c5f
 11e:	656d                	lui	a0,0x1b
 120:	6d6d                	lui	s10,0x1b
 122:	5f65766f          	jal	a2,57718 <_hart_stack_size+0x56f18>
 126:	6c65                	lui	s8,0x19
 128:	6d65                	lui	s10,0x19
 12a:	6e65                	lui	t3,0x19
 12c:	5f74                	lw	a3,124(a4)
 12e:	6e75                	lui	t3,0x1d
 130:	6564726f          	jal	tp,47786 <_hart_stack_size+0x46f86>
 134:	6572                	flw	fa0,28(sp)
 136:	5f64                	lw	s1,124(a4)
 138:	7461                	lui	s0,0xffff8
 13a:	63696d6f          	jal	s10,96770 <_hart_stack_size+0x95f70>
 13e:	315f ef00 0000      	0xef00315f
 144:	6d00                	flw	fs0,24(a0)
 146:	6d65                	lui	s10,0x19
 148:	5f797063          	bgeu	s2,s7,728 <.Lline_table_start0+0x630>
 14c:	6c65                	lui	s8,0x19
 14e:	6d65                	lui	s10,0x19
 150:	6e65                	lui	t3,0x19
 152:	5f74                	lw	a3,124(a4)
 154:	6e75                	lui	t3,0x1d
 156:	6564726f          	jal	tp,477ac <_hart_stack_size+0x46fac>
 15a:	6572                	flw	fa0,28(sp)
 15c:	5f64                	lw	s1,124(a4)
 15e:	7461                	lui	s0,0xffff8
 160:	63696d6f          	jal	s10,96796 <_hart_stack_size+0x95f96>
 164:	753c                	flw	fa5,104(a0)
 166:	003e3233          	sltu	tp,t3,gp
 16a:	0030                	addi	a2,sp,8
 16c:	0000                	unimp
 16e:	656d                	lui	a0,0x1b
 170:	636d                	lui	t1,0x1b
 172:	7970                	flw	fa2,116(a0)
 174:	bc00                	fsd	fs0,56(s0)
 176:	0000                	unimp
 178:	6d00                	flw	fs0,24(a0)
 17a:	6d65                	lui	s10,0x19
 17c:	5f797063          	bgeu	s2,s7,75c <.Lline_table_start0+0x664>
 180:	6c65                	lui	s8,0x19
 182:	6d65                	lui	s10,0x19
 184:	6e65                	lui	t3,0x19
 186:	5f74                	lw	a3,124(a4)
 188:	6e75                	lui	t3,0x1d
 18a:	6564726f          	jal	tp,477e0 <_hart_stack_size+0x46fe0>
 18e:	6572                	flw	fa0,28(sp)
 190:	5f64                	lw	s1,124(a4)
 192:	7461                	lui	s0,0xffff8
 194:	63696d6f          	jal	s10,967ca <_hart_stack_size+0x95fca>
 198:	753c                	flw	fa5,104(a0)
 19a:	3631                	jal	fffffca6 <_stack_start+0xdfff7ca6>
 19c:	003e                	c.slli	zero,0xf
 19e:	0184                	addi	s1,sp,192
 1a0:	0000                	unimp
 1a2:	5f5f 6c6c 6d76      	0x6d766c6c5f5f
 1a8:	6d5f 6d65 6f6d      	0x6f6d6d656d5f
 1ae:	6576                	flw	fa0,92(sp)
 1b0:	655f 656c 656d      	0x656d656c655f
 1b6:	746e                	flw	fs0,248(sp)
 1b8:	755f 6f6e 6472      	0x64726f6e755f
 1be:	7265                	lui	tp,0xffff9
 1c0:	6465                	lui	s0,0x19
 1c2:	615f 6f74 696d      	0x696d6f74615f
 1c8:	00325f63          	bge	tp,gp,1e6 <.Lline_table_start0+0xee>
 1cc:	0299                	addi	t0,t0,6
 1ce:	0000                	unimp
 1d0:	6461                	lui	s0,0x18
 1d2:	3c64                	fld	fs1,248(s0)
 1d4:	3875                	jal	fffffa90 <_stack_start+0xdfff7a90>
 1d6:	003e                	c.slli	zero,0xf
 1d8:	000001b7          	lui	gp,0x0
 1dc:	5f5f 6c6c 6d76      	0x6d766c6c5f5f
 1e2:	6d5f 6d65 6f6d      	0x6f6d6d656d5f
 1e8:	6576                	flw	fa0,92(sp)
 1ea:	655f 656c 656d      	0x656d656c655f
 1f0:	746e                	flw	fs0,248(sp)
 1f2:	755f 6f6e 6472      	0x64726f6e755f
 1f8:	7265                	lui	tp,0xffff9
 1fa:	6465                	lui	s0,0x19
 1fc:	615f 6f74 696d      	0x696d6f74615f
 202:	00345f63          	bge	s0,gp,220 <.Lline_table_start0+0x128>
 206:	027e                	slli	tp,tp,0x1f
 208:	0000                	unimp
 20a:	7470                	flw	fa2,108(s0)
 20c:	0072                	c.slli	zero,0x1c
 20e:	0089                	addi	ra,ra,2
 210:	0000                	unimp
 212:	656d                	lui	a0,0x1b
 214:	636d                	lui	t1,0x1b
 216:	7970                	flw	fa2,116(a0)
 218:	655f 656c 656d      	0x656d656c655f
 21e:	746e                	flw	fs0,248(sp)
 220:	755f 6f6e 6472      	0x64726f6e755f
 226:	7265                	lui	tp,0xffff9
 228:	6465                	lui	s0,0x19
 22a:	615f 6f74 696d      	0x696d6f74615f
 230:	38753c63          	0x38753c63
 234:	003e                	c.slli	zero,0xf
 236:	0000002b          	0x2b
 23a:	656d                	lui	a0,0x1b
 23c:	006d                	c.nop	27
 23e:	00000063          	beqz	zero,23e <.Lline_table_start0+0x146>
 242:	656d                	lui	a0,0x1b
 244:	636d                	lui	t1,0x1b
 246:	706d                	c.lui	zero,0xffffb
 248:	1d00                	addi	s0,sp,688
 24a:	0002                	c.slli64	zero
 24c:	5f00                	lw	s0,56(a4)
 24e:	6c5f 766c 5f6d      	0x5f6d766c6c5f
 254:	656d                	lui	a0,0x1b
 256:	736d                	lui	t1,0xffffb
 258:	7465                	lui	s0,0xffff9
 25a:	655f 656c 656d      	0x656d656c655f
 260:	746e                	flw	fs0,248(sp)
 262:	755f 6f6e 6472      	0x64726f6e755f
 268:	7265                	lui	tp,0xffff9
 26a:	6465                	lui	s0,0x19
 26c:	615f 6f74 696d      	0x696d6f74615f
 272:	00325f63          	bge	tp,gp,290 <.Lline_table_start0+0x198>
 276:	01ea                	slli	gp,gp,0x1a
 278:	0000                	unimp
 27a:	5f5f 6c6c 6d76      	0x6d766c6c5f5f
 280:	6d5f 6d65 6573      	0x65736d656d5f
 286:	5f74                	lw	a3,124(a4)
 288:	6c65                	lui	s8,0x19
 28a:	6d65                	lui	s10,0x19
 28c:	6e65                	lui	t3,0x19
 28e:	5f74                	lw	a3,124(a4)
 290:	6e75                	lui	t3,0x1d
 292:	6564726f          	jal	tp,478e8 <_hart_stack_size+0x470e8>
 296:	6572                	flw	fa0,28(sp)
 298:	5f64                	lw	s1,124(a4)
 29a:	7461                	lui	s0,0xffff8
 29c:	63696d6f          	jal	s10,968d2 <_hart_stack_size+0x960d2>
 2a0:	315f 5000 0002      	0x25000315f
 2a6:	5f00                	lw	s0,56(a4)
 2a8:	6c5f 766c 5f6d      	0x5f6d766c6c5f
 2ae:	656d                	lui	a0,0x1b
 2b0:	736d                	lui	t1,0xffffb
 2b2:	7465                	lui	s0,0xffff9
 2b4:	655f 656c 656d      	0x656d656c655f
 2ba:	746e                	flw	fs0,248(sp)
 2bc:	755f 6f6e 6472      	0x64726f6e755f
 2c2:	7265                	lui	tp,0xffff9
 2c4:	6465                	lui	s0,0x19
 2c6:	615f 6f74 696d      	0x696d6f74615f
 2cc:	00345f63          	bge	s0,gp,2ea <.Lline_table_start0+0x1f2>
 2d0:	0026                	c.slli	zero,0x9
 2d2:	0000                	unimp
 2d4:	706d6f63          	bltu	s10,t1,9f2 <_hart_stack_size+0x1f2>
 2d8:	6c69                	lui	s8,0x1a
 2da:	7265                	lui	tp,0xffff9
 2dc:	625f 6975 746c      	0x746c6975625f
 2e2:	6e69                	lui	t3,0x1a
 2e4:	01220073          	0x1220073
 2e8:	0000                	unimp
 2ea:	656d                	lui	a0,0x1b
 2ec:	6d6d                	lui	s10,0x1b
 2ee:	5f65766f          	jal	a2,578e4 <_hart_stack_size+0x570e4>
 2f2:	6c65                	lui	s8,0x19
 2f4:	6d65                	lui	s10,0x19
 2f6:	6e65                	lui	t3,0x19
 2f8:	5f74                	lw	a3,124(a4)
 2fa:	6e75                	lui	t3,0x1d
 2fc:	6564726f          	jal	tp,47952 <_hart_stack_size+0x47152>
 300:	6572                	flw	fa0,28(sp)
 302:	5f64                	lw	s1,124(a4)
 304:	7461                	lui	s0,0xffff8
 306:	63696d6f          	jal	s10,9693c <_hart_stack_size+0x9613c>
 30a:	753c                	flw	fa5,104(a0)
 30c:	3e38                	fld	fa4,120(a2)
 30e:	4400                	lw	s0,8(s0)
 310:	0002                	c.slli64	zero
 312:	6d00                	flw	fs0,24(a0)
 314:	6d65                	lui	s10,0x19
 316:	5f746573          	csrrsi	a0,0x5f7,8
 31a:	6c65                	lui	s8,0x19
 31c:	6d65                	lui	s10,0x19
 31e:	6e65                	lui	t3,0x19
 320:	5f74                	lw	a3,124(a4)
 322:	6e75                	lui	t3,0x1d
 324:	6564726f          	jal	tp,4797a <_hart_stack_size+0x4717a>
 328:	6572                	flw	fa0,28(sp)
 32a:	5f64                	lw	s1,124(a4)
 32c:	7461                	lui	s0,0xffff8
 32e:	63696d6f          	jal	s10,96964 <_hart_stack_size+0x96164>
 332:	753c                	flw	fa5,104(a0)
 334:	003e3233          	sltu	tp,t3,gp
 338:	0052                	c.slli	zero,0x14
 33a:	0000                	unimp
 33c:	656d                	lui	a0,0x1b
 33e:	736d                	lui	t1,0xffffb
 340:	7465                	lui	s0,0xffff9
 342:	1100                	addi	s0,sp,160
 344:	0002                	c.slli64	zero
 346:	6d00                	flw	fs0,24(a0)
 348:	6d65                	lui	s10,0x19
 34a:	5f746573          	csrrsi	a0,0x5f7,8
 34e:	6c65                	lui	s8,0x19
 350:	6d65                	lui	s10,0x19
 352:	6e65                	lui	t3,0x19
 354:	5f74                	lw	a3,124(a4)
 356:	6e75                	lui	t3,0x1d
 358:	6564726f          	jal	tp,479ae <_hart_stack_size+0x471ae>
 35c:	6572                	flw	fa0,28(sp)
 35e:	5f64                	lw	s1,124(a4)
 360:	7461                	lui	s0,0xffff8
 362:	63696d6f          	jal	s10,96998 <_hart_stack_size+0x96198>
 366:	753c                	flw	fa5,104(a0)
 368:	3631                	jal	fffffe74 <_stack_start+0xdfff7e74>
 36a:	003e                	c.slli	zero,0xf
 36c:	028d                	addi	t0,t0,3
 36e:	0000                	unimp
 370:	7366666f          	jal	a2,66aa6 <_hart_stack_size+0x662a6>
 374:	7465                	lui	s0,0xffff9
 376:	753c                	flw	fa5,104(a0)
 378:	3e38                	fld	fa4,120(a2)
 37a:	ab00                	fsd	fs0,16(a4)
 37c:	0001                	nop
 37e:	6d00                	flw	fs0,24(a0)
 380:	6d65                	lui	s10,0x19
 382:	6f6d                	lui	t5,0x1b
 384:	6576                	flw	fa0,92(sp)
 386:	655f 656c 656d      	0x656d656c655f
 38c:	746e                	flw	fs0,248(sp)
 38e:	755f 6f6e 6472      	0x64726f6e755f
 394:	7265                	lui	tp,0xffff9
 396:	6465                	lui	s0,0x19
 398:	615f 6f74 696d      	0x696d6f74615f
 39e:	33753c63          	0x33753c63
 3a2:	3e32                	fld	ft8,296(sp)
 3a4:	4100                	lw	s0,0(a0)
 3a6:	0000                	unimp
 3a8:	6d00                	flw	fs0,24(a0)
 3aa:	6d65                	lui	s10,0x19
 3ac:	6f6d                	lui	t5,0x1b
 3ae:	6576                	flw	fa0,92(sp)
 3b0:	7800                	flw	fs0,48(s0)
 3b2:	0001                	nop
 3b4:	6d00                	flw	fs0,24(a0)
 3b6:	6d65                	lui	s10,0x19
 3b8:	6f6d                	lui	t5,0x1b
 3ba:	6576                	flw	fa0,92(sp)
 3bc:	655f 656c 656d      	0x656d656c655f
 3c2:	746e                	flw	fs0,248(sp)
 3c4:	755f 6f6e 6472      	0x64726f6e755f
 3ca:	7265                	lui	tp,0xffff9
 3cc:	6465                	lui	s0,0x19
 3ce:	615f 6f74 696d      	0x696d6f74615f
 3d4:	31753c63          	0x31753c63
 3d8:	3e36                	fld	ft8,360(sp)
 3da:	8300                	0x8300
 3dc:	0002                	c.slli64	zero
 3de:	6300                	flw	fs0,0(a4)
 3e0:	74736e6f          	jal	t3,37326 <_hart_stack_size+0x36b26>
 3e4:	705f 7274 de00      	0xde007274705f
 3ea:	0001                	nop
 3ec:	6d00                	flw	fs0,24(a0)
 3ee:	6d65                	lui	s10,0x19
 3f0:	5f746573          	csrrsi	a0,0x5f7,8
 3f4:	6c65                	lui	s8,0x19
 3f6:	6d65                	lui	s10,0x19
 3f8:	6e65                	lui	t3,0x19
 3fa:	5f74                	lw	a3,124(a4)
 3fc:	6e75                	lui	t3,0x1d
 3fe:	6564726f          	jal	tp,47a54 <_hart_stack_size+0x47254>
 402:	6572                	flw	fa0,28(sp)
 404:	5f64                	lw	s1,124(a4)
 406:	7461                	lui	s0,0xffff8
 408:	63696d6f          	jal	s10,96a3e <_hart_stack_size+0x9623e>
 40c:	753c                	flw	fa5,104(a0)
 40e:	3e38                	fld	fa4,120(a2)
 410:	9500                	0x9500
 412:	0000                	unimp
 414:	5f00                	lw	s0,56(a4)
 416:	6c5f 766c 5f6d      	0x5f6d766c6c5f
 41c:	656d                	lui	a0,0x1b
 41e:	636d                	lui	t1,0x1b
 420:	7970                	flw	fa2,116(a0)
 422:	655f 656c 656d      	0x656d656c655f
 428:	746e                	flw	fs0,248(sp)
 42a:	755f 6f6e 6472      	0x64726f6e755f
 430:	7265                	lui	tp,0xffff9
 432:	6465                	lui	s0,0x19
 434:	615f 6f74 696d      	0x696d6f74615f
 43a:	00315f63          	bge	sp,gp,458 <.Lline_table_start0+0x360>
 43e:	0000                	unimp
	...

Disassembly of section .debug_pubtypes:

00000000 <.debug_pubtypes>:
   0:	000e                	c.slli	zero,0x3
   2:	0000                	unimp
   4:	0002                	c.slli64	zero
   6:	0000                	unimp
   8:	0000                	unimp
   a:	00a4                	addi	s1,sp,72
   c:	0000                	unimp
   e:	0000                	unimp
  10:	0000                	unimp
  12:	000e                	c.slli	zero,0x3
  14:	0000                	unimp
  16:	0002                	c.slli64	zero
  18:	00a4                	addi	s1,sp,72
  1a:	0000                	unimp
  1c:	000002ab          	0x2ab
  20:	0000                	unimp
	...

Disassembly of section .riscv.attributes:

00000000 <.riscv.attributes>:
   0:	2a41                	jal	190 <.Lline_table_start0+0x98>
   2:	0000                	unimp
   4:	7200                	flw	fs0,32(a2)
   6:	7369                	lui	t1,0xffffa
   8:	01007663          	bgeu	zero,a6,14 <_heap_size+0x14>
   c:	0020                	addi	s0,sp,8
   e:	0000                	unimp
  10:	1004                	addi	s1,sp,32
  12:	7205                	lui	tp,0xfffe1
  14:	3376                	fld	ft6,376(sp)
  16:	6932                	flw	fs2,12(sp)
  18:	7032                	flw	ft0,44(sp)
  1a:	5f30                	lw	a2,120(a4)
  1c:	326d                	jal	fffff9c6 <_stack_start+0xdfff79c6>
  1e:	3070                	fld	fa2,224(s0)
  20:	615f 7032 5f30      	0x5f307032615f
  26:	30703263          	0x30703263
  2a:	4100                	lw	s0,0(a0)
  2c:	0028                	addi	a0,sp,8
  2e:	0000                	unimp
  30:	6972                	flw	fs2,28(sp)
  32:	00766373          	csrrsi	t1,0x7,12
  36:	1e01                	addi	t3,t3,-32
  38:	0000                	unimp
  3a:	0500                	addi	s0,sp,640
  3c:	7672                	flw	fa2,60(sp)
  3e:	32693233          	0x32693233
  42:	3070                	fld	fa2,224(s0)
  44:	6d5f 7032 5f30      	0x5f3070326d5f
  4a:	3261                	jal	fffff9d2 <_stack_start+0xdfff79d2>
  4c:	3070                	fld	fa2,224(s0)
  4e:	635f 7032 0030      	0x307032635f
  54:	1e41                	addi	t3,t3,-16
  56:	0000                	unimp
  58:	7200                	flw	fs0,32(a2)
  5a:	7369                	lui	t1,0xffffa
  5c:	01007663          	bgeu	zero,a6,68 <_heap_size+0x68>
  60:	0014                	0x14
  62:	0000                	unimp
  64:	7205                	lui	tp,0xfffe1
  66:	3376                	fld	ft6,376(sp)
  68:	6932                	flw	fs2,12(sp)
  6a:	7032                	flw	ft0,44(sp)
  6c:	5f30                	lw	a2,120(a4)
  6e:	30703263          	0x30703263
  72:	4100                	lw	s0,0(a0)
  74:	002a                	c.slli	zero,0xa
  76:	0000                	unimp
  78:	6972                	flw	fs2,28(sp)
  7a:	00766373          	csrrsi	t1,0x7,12
  7e:	2001                	jal	7e <_heap_size+0x7e>
  80:	0000                	unimp
  82:	0400                	addi	s0,sp,512
  84:	0510                	addi	a2,sp,640
  86:	7672                	flw	fa2,60(sp)
  88:	32693233          	0x32693233
  8c:	3070                	fld	fa2,224(s0)
  8e:	6d5f 7032 5f30      	0x5f3070326d5f
  94:	3261                	jal	fffffa1c <_stack_start+0xdfff7a1c>
  96:	3070                	fld	fa2,224(s0)
  98:	635f 7032 0030      	0x307032635f
  9e:	2341                	jal	61e <.Lline_table_start0+0x526>
  a0:	0000                	unimp
  a2:	7200                	flw	fs0,32(a2)
  a4:	7369                	lui	t1,0xffffa
  a6:	01007663          	bgeu	zero,a6,b2 <_heap_size+0xb2>
  aa:	0019                	c.nop	6
  ac:	0000                	unimp
  ae:	7205                	lui	tp,0xfffe1
  b0:	3376                	fld	ft6,376(sp)
  b2:	6932                	flw	fs2,12(sp)
  b4:	7032                	flw	ft0,44(sp)
  b6:	5f30                	lw	a2,120(a4)
  b8:	326d                	jal	fffffa62 <_stack_start+0xdfff7a62>
  ba:	3070                	fld	fa2,224(s0)
  bc:	635f 7032 0030      	0x307032635f

Disassembly of section .debug_line:

00000000 <.Lline_table_start0>:
   0:	00f4                	addi	a3,sp,76
   2:	0000                	unimp
   4:	0004                	0x4
   6:	0084                	addi	s1,sp,64
   8:	0000                	unimp
   a:	0101                	addi	sp,sp,0
   c:	fb01                	bnez	a4,ffffff1c <_stack_start+0xdfff7f1c>
   e:	0d0e                	slli	s10,s10,0x3
  10:	0100                	addi	s0,sp,128
  12:	0101                	addi	sp,sp,0
  14:	0001                	nop
  16:	0000                	unimp
  18:	0001                	nop
  1a:	0100                	addi	s0,sp,128
  1c:	7375722f          	0x7375722f
  20:	6374                	flw	fa3,68(a4)
  22:	3735322f          	0x3735322f
  26:	6562                	flw	fa0,24(sp)
  28:	65666263          	bltu	a2,s6,66c <.Lline_table_start0+0x574>
  2c:	3934                	fld	fa3,112(a0)
  2e:	3738                	fld	fa4,104(a4)
  30:	3164                	fld	fs1,224(a0)
  32:	3766                	fld	fa4,120(sp)
  34:	3162                	fld	ft2,56(sp)
  36:	6132                	flw	ft2,12(sp)
  38:	3566                	fld	fa0,120(sp)
  3a:	3861                	jal	fffff8d2 <_stack_start+0xdfff78d2>
  3c:	6464                	flw	fs1,76(s0)
  3e:	6535                	lui	a0,0xd
  40:	3964                	fld	fs1,240(a0)
  42:	3636                	fld	fa2,360(sp)
  44:	3739                	jal	ffffff52 <_stack_start+0xdfff7f52>
  46:	65326463          	bltu	tp,s3,68e <.Lline_table_start0+0x596>
  4a:	2f38                	fld	fa4,88(a4)
  4c:	0000                	unimp
  4e:	696c                	flw	fa1,84(a0)
  50:	7262                	flw	ft4,56(sp)
  52:	7261                	lui	tp,0xffff8
  54:	2f79                	jal	7f2 <.Lline_table_start0+0x6fa>
  56:	65726f63          	bltu	tp,s7,6b4 <.Lline_table_start0+0x5bc>
  5a:	6372732f          	0x6372732f
  5e:	6e61702f          	0x6e61702f
  62:	6369                	lui	t1,0x1a
  64:	676e696b          	0x676e696b
  68:	722e                	flw	ft4,232(sp)
  6a:	00010073          	0x10073
  6e:	6c00                	flw	fs0,24(s0)
  70:	6269                	lui	tp,0x1a
  72:	6172                	flw	ft2,28(sp)
  74:	7972                	flw	fs2,60(sp)
  76:	726f632f          	0x726f632f
  7a:	2f65                	jal	832 <_hart_stack_size+0x32>
  7c:	2f637273          	csrrci	tp,0x2f6,6
  80:	6974706f          	j	47f16 <_hart_stack_size+0x47716>
  84:	722e6e6f          	jal	t3,e67a6 <_hart_stack_size+0xe5fa6>
  88:	00010073          	0x10073
  8c:	0000                	unimp
  8e:	0500                	addi	s0,sp,640
  90:	4002                	0x4002
  92:	001e                	c.slli	zero,0x7
  94:	0308                	addi	a0,sp,384
  96:	0126                	slli	sp,sp,0x9
  98:	0505                	addi	a0,a0,1
  9a:	030a                	slli	t1,t1,0x2
  9c:	0c022e0b          	0xc022e0b
  a0:	0100                	addi	s0,sp,128
  a2:	0001                	nop
  a4:	0205                	addi	tp,tp,1
  a6:	1e4e                	slli	t3,t3,0x33
  a8:	0800                	addi	s0,sp,16
  aa:	05013f03          	0x5013f03
  ae:	0a05                	addi	s4,s4,1
  b0:	000c0233          	add	tp,s8,zero
  b4:	0101                	addi	sp,sp,0
  b6:	0500                	addi	s0,sp,640
  b8:	5c02                	lw	s8,32(sp)
  ba:	001e                	c.slli	zero,0x7
  bc:	0308                	addi	a0,sp,384
  be:	00cc                	addi	a1,sp,68
  c0:	0501                	addi	a0,a0,0
  c2:	0a0e                	slli	s4,s4,0x3
  c4:	022e0f03          	lb	t5,34(t3) # 1d022 <_hart_stack_size+0x1c822>
  c8:	000c                	0xc
  ca:	0101                	addi	sp,sp,0
  cc:	0204                	addi	s1,sp,256
  ce:	0500                	addi	s0,sp,640
  d0:	6a02                	flw	fs4,0(sp)
  d2:	001e                	c.slli	zero,0x7
  d4:	0308                	addi	a0,sp,384
  d6:	09ea                	slli	s3,s3,0x1a
  d8:	0501                	addi	a0,a0,0
  da:	0a05                	addi	s4,s4,1
  dc:	000c022f          	0xc022f
  e0:	0101                	addi	sp,sp,0
  e2:	0204                	addi	s1,sp,256
  e4:	0500                	addi	s0,sp,640
  e6:	7802                	flw	fa6,32(sp)
  e8:	001e                	c.slli	zero,0x7
  ea:	0308                	addi	a0,sp,384
  ec:	09f2                	slli	s3,s3,0x1c
  ee:	0501                	addi	a0,a0,0
  f0:	0a05                	addi	s4,s4,1
  f2:	000c022f          	0xc022f
  f6:	0101                	addi	sp,sp,0

000000f8 <.Lline_table_start0>:
  f8:	0460                	addi	s0,sp,524
  fa:	0000                	unimp
  fc:	0004                	0x4
  fe:	00000163          	beqz	zero,100 <.Lline_table_start0+0x8>
 102:	0101                	addi	sp,sp,0
 104:	fb01                	bnez	a4,14 <.Lline_table_start0+0x14>
 106:	0d0e                	slli	s10,s10,0x3
 108:	0100                	addi	s0,sp,128
 10a:	0101                	addi	sp,sp,0
 10c:	0001                	nop
 10e:	0000                	unimp
 110:	0001                	nop
 112:	0100                	addi	s0,sp,128
 114:	7261632f          	0x7261632f
 118:	722f6f67          	0x722f6f67
 11c:	6765                	lui	a4,0x19
 11e:	7369                	lui	t1,0xffffa
 120:	7274                	flw	fa3,100(a2)
 122:	2f79                	jal	8c0 <_hart_stack_size+0xc0>
 124:	2f637273          	csrrci	tp,0x2f6,6
 128:	68746967          	0x68746967
 12c:	6275                	lui	tp,0x1d
 12e:	632e                	flw	ft6,200(sp)
 130:	312d6d6f          	jal	s10,d6442 <_hart_stack_size+0xd5c42>
 134:	6365                	lui	t1,0x19
 136:	39323663          	0x39323663
 13a:	6439                	lui	s0,0xe
 13c:	3962                	fld	fs2,56(sp)
 13e:	6365                	lui	t1,0x19
 140:	3238                	fld	fa4,96(a2)
 142:	6f632f33          	0x6f632f33
 146:	706d                	c.lui	zero,0xffffb
 148:	6c69                	lui	s8,0x1a
 14a:	7265                	lui	tp,0xffff9
 14c:	625f 6975 746c      	0x746c6975625f
 152:	6e69                	lui	t3,0x1a
 154:	2e302d73          	csrr	s10,0x2e3
 158:	2e31                	jal	474 <.Lline_table_start0+0x37c>
 15a:	2f003633          	0x2f003633
 15e:	7572                	flw	fa0,60(sp)
 160:	2f637473          	csrrci	s0,0x2f6,6
 164:	3532                	fld	fa0,296(sp)
 166:	63656237          	lui	tp,0x63656
 16a:	6662                	flw	fa2,24(sp)
 16c:	3465                	jal	fffffc14 <_stack_start+0xdfff7c14>
 16e:	3839                	jal	fffff98c <_stack_start+0xdfff798c>
 170:	66316437          	lui	s0,0x66316
 174:	32316237          	lui	tp,0x32316
 178:	6661                	lui	a2,0x18
 17a:	6135                	addi	sp,sp,352
 17c:	6438                	flw	fa4,72(s0)
 17e:	3564                	fld	fs1,232(a0)
 180:	6465                	lui	s0,0x19
 182:	3639                	jal	fffffc90 <_stack_start+0xdfff7c90>
 184:	3936                	fld	fs2,360(sp)
 186:	32646337          	lui	t1,0x32646
 18a:	3865                	jal	fffffa42 <_stack_start+0xdfff7a42>
 18c:	62696c2f          	0x62696c2f
 190:	6172                	flw	ft2,28(sp)
 192:	7972                	flw	fs2,60(sp)
 194:	726f632f          	0x726f632f
 198:	2f65                	jal	950 <_hart_stack_size+0x150>
 19a:	2f637273          	csrrci	tp,0x2f6,6
 19e:	7470                	flw	fa2,108(s0)
 1a0:	0072                	c.slli	zero,0x1c
 1a2:	2f00                	fld	fs0,24(a4)
 1a4:	67726163          	bltu	tp,s7,806 <_hart_stack_size+0x6>
 1a8:	65722f6f          	jal	t5,22ffe <_hart_stack_size+0x227fe>
 1ac:	74736967          	0x74736967
 1b0:	7972                	flw	fs2,60(sp)
 1b2:	6372732f          	0x6372732f
 1b6:	7469672f          	0x7469672f
 1ba:	7568                	flw	fa0,108(a0)
 1bc:	2e62                	fld	ft8,24(sp)
 1be:	2d6d6f63          	bltu	s10,s6,49c <.Lline_table_start0+0x3a4>
 1c2:	6531                	lui	a0,0xc
 1c4:	32366363          	bltu	a2,gp,4ea <.Lline_table_start0+0x3f2>
 1c8:	3939                	jal	fffffde6 <_stack_start+0xdfff7de6>
 1ca:	6264                	flw	fs1,68(a2)
 1cc:	6539                	lui	a0,0xe
 1ce:	33323863          	0x33323863
 1d2:	6d6f632f          	0x6d6f632f
 1d6:	6970                	flw	fa2,84(a0)
 1d8:	656c                	flw	fa1,76(a0)
 1da:	5f72                	lw	t5,60(sp)
 1dc:	7562                	flw	fa0,56(sp)
 1de:	6c69                	lui	s8,0x1a
 1e0:	6974                	flw	fa3,84(a0)
 1e2:	736e                	flw	ft6,248(sp)
 1e4:	302d                	jal	fffffa0e <_stack_start+0xdfff7a0e>
 1e6:	312e                	fld	ft2,232(sp)
 1e8:	332e                	fld	ft6,232(sp)
 1ea:	2f36                	fld	ft10,328(sp)
 1ec:	2f637273          	csrrci	tp,0x2f6,6
 1f0:	656d                	lui	a0,0x1b
 1f2:	2e6d                	jal	5ac <.Lline_table_start0+0x4b4>
 1f4:	7372                	flw	ft6,60(sp)
 1f6:	0100                	addi	s0,sp,128
 1f8:	0000                	unimp
 1fa:	7261632f          	0x7261632f
 1fe:	722f6f67          	0x722f6f67
 202:	6765                	lui	a4,0x19
 204:	7369                	lui	t1,0xffffa
 206:	7274                	flw	fa3,100(a2)
 208:	2f79                	jal	9a6 <_hart_stack_size+0x1a6>
 20a:	2f637273          	csrrci	tp,0x2f6,6
 20e:	68746967          	0x68746967
 212:	6275                	lui	tp,0x1d
 214:	632e                	flw	ft6,200(sp)
 216:	312d6d6f          	jal	s10,d6528 <_hart_stack_size+0xd5d28>
 21a:	6365                	lui	t1,0x19
 21c:	39323663          	0x39323663
 220:	6439                	lui	s0,0xe
 222:	3962                	fld	fs2,56(sp)
 224:	6365                	lui	t1,0x19
 226:	3238                	fld	fa4,96(a2)
 228:	6f632f33          	0x6f632f33
 22c:	706d                	c.lui	zero,0xffffb
 22e:	6c69                	lui	s8,0x1a
 230:	7265                	lui	tp,0xffff9
 232:	625f 6975 746c      	0x746c6975625f
 238:	6e69                	lui	t3,0x1a
 23a:	2e302d73          	csrr	s10,0x2e3
 23e:	2e31                	jal	55a <.Lline_table_start0+0x462>
 240:	732f3633          	0x732f3633
 244:	6372                	flw	ft6,28(sp)
 246:	63616d2f          	0x63616d2f
 24a:	6f72                	flw	ft10,28(sp)
 24c:	73722e73          	csrrs	t3,0x737,tp
 250:	0100                	addi	s0,sp,128
 252:	0000                	unimp
 254:	736e6f63          	bltu	t3,s6,992 <_hart_stack_size+0x192>
 258:	5f74                	lw	a3,124(a4)
 25a:	7470                	flw	fa2,108(s0)
 25c:	2e72                	fld	ft8,280(sp)
 25e:	7372                	flw	ft6,60(sp)
 260:	0200                	addi	s0,sp,256
 262:	0000                	unimp
 264:	0000                	unimp
 266:	0205                	addi	tp,tp,1
 268:	2224                	fld	fs1,64(a2)
 26a:	0800                	addi	s0,sp,16
 26c:	05010c03          	lb	s8,80(sp) # 34306050 <_stack_start+0x142fe050>
 270:	0a05                	addi	s4,s4,1
 272:	0614                	addi	a3,sp,768
 274:	052e7103          	0x52e7103
 278:	0624                	addi	s1,sp,776
 27a:	052e1003          	lh	zero,82(t3) # 1a052 <_hart_stack_size+0x19852>
 27e:	0609                	addi	a2,a2,2
 280:	054a                	slli	a0,a0,0x12
 282:	0549060b          	0x549060b
 286:	0605                	addi	a2,a2,1
 288:	0566                	slli	a0,a0,0x19
 28a:	0602                	c.slli64	a2
 28c:	00020233          	add	tp,tp,zero
 290:	0101                	addi	sp,sp,0
 292:	0500                	addi	s0,sp,640
 294:	0002                	c.slli64	zero
 296:	0000                	unimp
 298:	0300                	addi	s0,sp,384
 29a:	0116                	slli	sp,sp,0x5
 29c:	030a                	slli	t1,t1,0x2
 29e:	0169                	addi	sp,sp,26
 2a0:	0505                	addi	a0,a0,1
 2a2:	054a1803          	lh	a6,84(s4)
 2a6:	4d09                	li	s10,2
 2a8:	2805                	jal	2d8 <.Lline_table_start0+0x1e0>
 2aa:	0584                	addi	s1,sp,704
 2ac:	810d                	srli	a0,a0,0x3
 2ae:	8009054b          	fnmsub.s	fa0,fs2,ft0,fa6,rne
 2b2:	0651                	addi	a2,a2,20
 2b4:	052e5e03          	lhu	t3,82(t3)
 2b8:	0628                	addi	a0,sp,776
 2ba:	052e2303          	lw	t1,82(t3)
 2be:	060d                	addi	a2,a2,3
 2c0:	054a                	slli	a0,a0,0x12
 2c2:	0549060f          	0x549060f
 2c6:	8802                	jr	a6
 2c8:	0202                	c.slli64	tp
 2ca:	0100                	addi	s0,sp,128
 2cc:	0001                	nop
 2ce:	0205                	addi	tp,tp,1
 2d0:	223a                	fld	ft4,392(sp)
 2d2:	0800                	addi	s0,sp,16
 2d4:	05012a03          	lw	s4,80(sp)
 2d8:	0a05                	addi	s4,s4,1
 2da:	0614                	addi	a3,sp,768
 2dc:	052e5303          	lhu	t1,82(t3)
 2e0:	0609                	addi	a2,a2,2
 2e2:	052e2e03          	lw	t3,82(t3)
 2e6:	0505490b          	0x505490b
 2ea:	4a06                	lw	s4,64(sp)
 2ec:	0205                	addi	tp,tp,1
 2ee:	3306                	fld	ft6,96(sp)
 2f0:	0202                	c.slli64	tp
 2f2:	0100                	addi	s0,sp,128
 2f4:	0001                	nop
 2f6:	0205                	addi	tp,tp,1
 2f8:	0000                	unimp
 2fa:	0000                	unimp
 2fc:	0100c203          	lbu	tp,16(ra) # d120010 <_sidata+0x511cc40>
 300:	0505                	addi	a0,a0,1
 302:	030a                	slli	t1,t1,0x2
 304:	0174                	addi	a3,sp,140
 306:	1105                	addi	sp,sp,-31
 308:	09054b2f          	0x9054b2f
 30c:	470b054b          	fnmsub.q	fa0,fs6,fa6,fs0,rne
 310:	0505                	addi	a0,a0,1
 312:	6606                	flw	fa2,64(sp)
 314:	0005                	c.nop	1
 316:	052e4903          	lbu	s2,82(t3)
 31a:	0602                	c.slli64	a2
 31c:	2e00c503          	lbu	a0,736(ra)
 320:	1405                	addi	s0,s0,-31
 322:	052e7603          	0x52e7603
 326:	0302                	c.slli64	t1
 328:	4a0a                	lw	s4,128(sp)
 32a:	0202                	c.slli64	tp
 32c:	0100                	addi	s0,sp,128
 32e:	0401                	addi	s0,s0,0
 330:	0002                	c.slli64	zero
 332:	0205                	addi	tp,tp,1
 334:	0000                	unimp
 336:	0000                	unimp
 338:	01028503          	lb	a0,16(t0)
 33c:	0104                	addi	s1,sp,128
 33e:	0905                	addi	s2,s2,1
 340:	030a                	slli	t1,t1,0x2
 342:	7ec6                	flw	ft9,112(sp)
 344:	0501                	addi	a0,a0,0
 346:	2f31                	jal	a62 <_hart_stack_size+0x262>
 348:	0d05                	addi	s10,s10,1
 34a:	4a06                	lw	s4,64(sp)
 34c:	0f05                	addi	t5,t5,1
 34e:	4906                	lw	s2,64(sp)
 350:	0905                	addi	s2,s2,1
 352:	6606                	flw	fa2,64(sp)
 354:	0204                	addi	s1,sp,256
 356:	0a05                	addi	s4,s4,1
 358:	0306                	slli	t1,t1,0x1
 35a:	01bc                	addi	a5,sp,200
 35c:	022e                	slli	tp,tp,0xb
 35e:	0002                	c.slli64	zero
 360:	0101                	addi	sp,sp,0
 362:	0204                	addi	s1,sp,256
 364:	0500                	addi	s0,sp,640
 366:	0002                	c.slli64	zero
 368:	0000                	unimp
 36a:	0300                	addi	s0,sp,384
 36c:	0285                	addi	t0,t0,1
 36e:	0401                	addi	s0,s0,0
 370:	0501                	addi	a0,a0,0
 372:	0a09                	addi	s4,s4,2
 374:	017ec603          	lbu	a2,23(t4) # 1016225b <_sidata+0x815ee8b>
 378:	0306                	slli	t1,t1,0x1
 37a:	7fb4                	flw	fa3,120(a5)
 37c:	032e                	slli	t1,t1,0xb
 37e:	00cc                	addi	a1,sp,68
 380:	052e                	slli	a0,a0,0xb
 382:	0631                	addi	a2,a2,12
 384:	060d052f          	0x60d052f
 388:	064a                	slli	a2,a2,0x12
 38a:	6409054b          	0x6409054b
 38e:	0204                	addi	s1,sp,256
 390:	0a05                	addi	s4,s4,1
 392:	4a01bc03          	0x4a01bc03
 396:	0202                	c.slli64	tp
 398:	0100                	addi	s0,sp,128
 39a:	0401                	addi	s0,s0,0
 39c:	0002                	c.slli64	zero
 39e:	0205                	addi	tp,tp,1
 3a0:	0000                	unimp
 3a2:	0000                	unimp
 3a4:	01028503          	lb	a0,16(t0)
 3a8:	0104                	addi	s1,sp,128
 3aa:	0905                	addi	s2,s2,1
 3ac:	030a                	slli	t1,t1,0x2
 3ae:	7ec6                	flw	ft9,112(sp)
 3b0:	0601                	addi	a2,a2,0
 3b2:	2e7fb403          	0x2e7fb403
 3b6:	2e00cc03          	lbu	s8,736(ra)
 3ba:	3105                	jal	ffffffda <_stack_start+0xdfff7fda>
 3bc:	2f06                	fld	ft10,64(sp)
 3be:	0d05                	addi	s10,s10,1
 3c0:	2e06                	fld	ft8,64(sp)
 3c2:	2f06                	fld	ft10,64(sp)
 3c4:	0905                	addi	s2,s2,1
 3c6:	0464                	addi	s1,sp,524
 3c8:	0502                	c.slli64	a0
 3ca:	030a                	slli	t1,t1,0x2
 3cc:	01bc                	addi	a5,sp,200
 3ce:	024a                	slli	tp,tp,0x12
 3d0:	0002                	c.slli64	zero
 3d2:	0101                	addi	sp,sp,0
 3d4:	0204                	addi	s1,sp,256
 3d6:	0500                	addi	s0,sp,640
 3d8:	0002                	c.slli64	zero
 3da:	0000                	unimp
 3dc:	0300                	addi	s0,sp,384
 3de:	0285                	addi	t0,t0,1
 3e0:	0401                	addi	s0,s0,0
 3e2:	0a01                	addi	s4,s4,0
 3e4:	017dfa03          	0x17dfa03
 3e8:	0905                	addi	s2,s2,1
 3ea:	4a00d703          	lhu	a4,1184(ra)
 3ee:	0d05                	addi	s10,s10,1
 3f0:	054d                	addi	a0,a0,19
 3f2:	6835                	lui	a6,0xd
 3f4:	1105                	addi	sp,sp,-31
 3f6:	0481                	addi	s1,s1,0
 3f8:	03120503          	lb	a0,49(tp) # ffff9031 <_stack_start+0xdfff1031>
 3fc:	0186                	slli	gp,gp,0x1
 3fe:	044a                	slli	s0,s0,0x12
 400:	0501                	addi	a0,a0,0
 402:	0311                	addi	t1,t1,4
 404:	052e7efb          	0x52e7efb
 408:	640d                	lui	s0,0x3
 40a:	0551                	addi	a0,a0,20
 40c:	2f35                	jal	b48 <_hart_stack_size+0x348>
 40e:	1105                	addi	sp,sp,-31
 410:	4a06                	lw	s4,64(sp)
 412:	1305                	addi	t1,t1,-31
 414:	4906                	lw	s2,64(sp)
 416:	0204                	addi	s1,sp,256
 418:	0a05                	addi	s4,s4,1
 41a:	8201a703          	lw	a4,-2016(gp) # fffff820 <_stack_start+0xdfff7820>
 41e:	0202                	c.slli64	tp
 420:	0100                	addi	s0,sp,128
 422:	0401                	addi	s0,s0,0
 424:	0002                	c.slli64	zero
 426:	0205                	addi	tp,tp,1
 428:	0000                	unimp
 42a:	0000                	unimp
 42c:	01028503          	lb	a0,16(t0)
 430:	0104                	addi	s1,sp,128
 432:	1105                	addi	sp,sp,-31
 434:	030a                	slli	t1,t1,0x2
 436:	7ed0                	flw	fa2,60(a3)
 438:	0501                	addi	a0,a0,0
 43a:	0600                	addi	s0,sp,768
 43c:	4a7faa03          	lw	s4,1191(t6)
 440:	0905                	addi	s2,s2,1
 442:	0306                	slli	t1,t1,0x1
 444:	054a00d7          	0x54a00d7
 448:	4d0d                	li	s10,3
 44a:	3505                	jal	26a <.Lline_table_start0+0x172>
 44c:	05bc                	addi	a5,sp,712
 44e:	4911                	li	s2,4
 450:	480d052f          	0x480d052f
 454:	0689                	addi	a3,a3,2
 456:	2e7f9f03          	lh	t5,743(t6)
 45a:	3505                	jal	27a <.Lline_table_start0+0x182>
 45c:	0306                	slli	t1,t1,0x1
 45e:	00e2                	slli	ra,ra,0x18
 460:	052e                	slli	a0,a0,0xb
 462:	0611                	addi	a2,a2,4
 464:	064a                	slli	a2,a2,0x12
 466:	0502044b          	0x502044b
 46a:	030a                	slli	t1,t1,0x2
 46c:	01a5                	addi	gp,gp,9
 46e:	029e                	slli	t0,t0,0x7
 470:	0002                	c.slli64	zero
 472:	0101                	addi	sp,sp,0
 474:	0204                	addi	s1,sp,256
 476:	0500                	addi	s0,sp,640
 478:	0002                	c.slli64	zero
 47a:	0000                	unimp
 47c:	0300                	addi	s0,sp,384
 47e:	0285                	addi	t0,t0,1
 480:	0401                	addi	s0,s0,0
 482:	0501                	addi	a0,a0,0
 484:	0a11                	addi	s4,s4,4
 486:	017ed003          	lhu	zero,23(t4)
 48a:	0005                	c.nop	1
 48c:	0306                	slli	t1,t1,0x1
 48e:	7faa                	flw	ft11,168(sp)
 490:	054a                	slli	a0,a0,0x12
 492:	0609                	addi	a2,a2,2
 494:	4a00d703          	lhu	a4,1184(ra)
 498:	0d05                	addi	s10,s10,1
 49a:	054d                	addi	a0,a0,19
 49c:	bc35                	j	fffffed8 <_stack_start+0xdfff7ed8>
 49e:	1105                	addi	sp,sp,-31
 4a0:	2f2d                	jal	bda <_hart_stack_size+0x3da>
 4a2:	0d05                	addi	s10,s10,1
 4a4:	892c                	0x892c
 4a6:	0306                	slli	t1,t1,0x1
 4a8:	7f9f 052e 0635      	0x635052e7f9f
 4ae:	2e00e203          	0x2e00e203
 4b2:	1105                	addi	sp,sp,-31
 4b4:	2e06                	fld	ft8,64(sp)
 4b6:	2f06                	fld	ft10,64(sp)
 4b8:	0204                	addi	s1,sp,256
 4ba:	0a05                	addi	s4,s4,1
 4bc:	9e01a503          	lw	a0,-1568(gp) # 200001e0 <_ebss+0x1dc>
 4c0:	0202                	c.slli64	tp
 4c2:	0100                	addi	s0,sp,128
 4c4:	0401                	addi	s0,s0,0
 4c6:	0002                	c.slli64	zero
 4c8:	0205                	addi	tp,tp,1
 4ca:	0000                	unimp
 4cc:	0000                	unimp
 4ce:	01028503          	lb	a0,16(t0)
 4d2:	0104                	addi	s1,sp,128
 4d4:	0905                	addi	s2,s2,1
 4d6:	030a                	slli	t1,t1,0x2
 4d8:	7ef6                	flw	ft9,124(sp)
 4da:	0501                	addi	a0,a0,0
 4dc:	2f0d                	jal	c0e <_hart_stack_size+0x40e>
 4de:	0f05                	addi	t5,t5,1
 4e0:	0549                	addi	a0,a0,18
 4e2:	0609                	addi	a2,a2,2
 4e4:	044a                	slli	s0,s0,0x12
 4e6:	0502                	c.slli64	a0
 4e8:	060a                	slli	a2,a2,0x2
 4ea:	2e018c03          	lb	s8,736(gp) # 20000ae0 <__global_pointer$+0x2e0>
 4ee:	0202                	c.slli64	tp
 4f0:	0100                	addi	s0,sp,128
 4f2:	0401                	addi	s0,s0,0
 4f4:	0002                	c.slli64	zero
 4f6:	0205                	addi	tp,tp,1
 4f8:	0000                	unimp
 4fa:	0000                	unimp
 4fc:	01028503          	lb	a0,16(t0)
 500:	0104                	addi	s1,sp,128
 502:	0905                	addi	s2,s2,1
 504:	030a                	slli	t1,t1,0x2
 506:	7ef6                	flw	ft9,124(sp)
 508:	0601                	addi	a2,a2,0
 50a:	2e7f8403          	lb	s0,743(t6)
 50e:	8200fc03          	0x8200fc03
 512:	0d05                	addi	s10,s10,1
 514:	2f06                	fld	ft10,64(sp)
 516:	4809054b          	fnmsub.s	fa0,fs2,ft0,fs1,rne
 51a:	0204                	addi	s1,sp,256
 51c:	0a05                	addi	s4,s4,1
 51e:	4a018c03          	lb	s8,1184(gp) # 20000ca0 <__global_pointer$+0x4a0>
 522:	0202                	c.slli64	tp
 524:	0100                	addi	s0,sp,128
 526:	0401                	addi	s0,s0,0
 528:	0002                	c.slli64	zero
 52a:	0205                	addi	tp,tp,1
 52c:	0000                	unimp
 52e:	0000                	unimp
 530:	01028503          	lb	a0,16(t0)
 534:	0104                	addi	s1,sp,128
 536:	0905                	addi	s2,s2,1
 538:	030a                	slli	t1,t1,0x2
 53a:	7ef6                	flw	ft9,124(sp)
 53c:	0601                	addi	a2,a2,0
 53e:	2e7f8403          	lb	s0,743(t6)
 542:	0800fc03          	0x800fc03
 546:	0558                	addi	a4,sp,644
 548:	060d                	addi	a2,a2,3
 54a:	09052f2f          	amoswap.w	t5,a6,(a0)
 54e:	0448                	addi	a0,sp,516
 550:	0502                	c.slli64	a0
 552:	030a                	slli	t1,t1,0x2
 554:	018c                	addi	a1,sp,192
 556:	024a                	slli	tp,tp,0x12
 558:	0002                	c.slli64	zero
 55a:	0101                	addi	sp,sp,0
 55c:	0252                	slli	tp,tp,0x14
 55e:	0000                	unimp
 560:	001c0003          	lb	zero,1(s8) # 1a001 <_hart_stack_size+0x19801>
 564:	0000                	unimp
 566:	0101                	addi	sp,sp,0
 568:	000d0efb          	0xd0efb
 56c:	0101                	addi	sp,sp,0
 56e:	0101                	addi	sp,sp,0
 570:	0000                	unimp
 572:	0100                	addi	s0,sp,128
 574:	0000                	unimp
 576:	0001                	nop
 578:	7361                	lui	t1,0xffff8
 57a:	2e6d                	jal	934 <_hart_stack_size+0x134>
 57c:	00000053          	fadd.s	ft0,ft0,ft0,rne
 580:	0000                	unimp
 582:	0500                	addi	s0,sp,640
 584:	0002                	c.slli64	zero
 586:	0000                	unimp
 588:	0308                	addi	a0,sp,384
 58a:	011a                	slli	sp,sp,0x6
 58c:	04090103          	lb	sp,64(s2) # 18040 <_hart_stack_size+0x17840>
 590:	0100                	addi	s0,sp,128
 592:	04091503          	lh	a0,64(s2)
 596:	0100                	addi	s0,sp,128
 598:	04090103          	lb	sp,64(s2)
 59c:	0100                	addi	s0,sp,128
 59e:	04090203          	lb	tp,64(s2)
 5a2:	0100                	addi	s0,sp,128
 5a4:	02090103          	lb	sp,32(s2)
 5a8:	0100                	addi	s0,sp,128
 5aa:	02090103          	lb	sp,32(s2)
 5ae:	0100                	addi	s0,sp,128
 5b0:	02090103          	lb	sp,32(s2)
 5b4:	0100                	addi	s0,sp,128
 5b6:	02090103          	lb	sp,32(s2)
 5ba:	0100                	addi	s0,sp,128
 5bc:	02090103          	lb	sp,32(s2)
 5c0:	0100                	addi	s0,sp,128
 5c2:	02090103          	lb	sp,32(s2)
 5c6:	0100                	addi	s0,sp,128
 5c8:	02090103          	lb	sp,32(s2)
 5cc:	0100                	addi	s0,sp,128
 5ce:	02090103          	lb	sp,32(s2)
 5d2:	0100                	addi	s0,sp,128
 5d4:	02090103          	lb	sp,32(s2)
 5d8:	0100                	addi	s0,sp,128
 5da:	02090103          	lb	sp,32(s2)
 5de:	0100                	addi	s0,sp,128
 5e0:	02090103          	lb	sp,32(s2)
 5e4:	0100                	addi	s0,sp,128
 5e6:	02090103          	lb	sp,32(s2)
 5ea:	0100                	addi	s0,sp,128
 5ec:	02090103          	lb	sp,32(s2)
 5f0:	0100                	addi	s0,sp,128
 5f2:	02090103          	lb	sp,32(s2)
 5f6:	0100                	addi	s0,sp,128
 5f8:	02090103          	lb	sp,32(s2)
 5fc:	0100                	addi	s0,sp,128
 5fe:	02090103          	lb	sp,32(s2)
 602:	0100                	addi	s0,sp,128
 604:	02090103          	lb	sp,32(s2)
 608:	0100                	addi	s0,sp,128
 60a:	02090103          	lb	sp,32(s2)
 60e:	0100                	addi	s0,sp,128
 610:	02090103          	lb	sp,32(s2)
 614:	0100                	addi	s0,sp,128
 616:	02090103          	lb	sp,32(s2)
 61a:	0100                	addi	s0,sp,128
 61c:	02090103          	lb	sp,32(s2)
 620:	0100                	addi	s0,sp,128
 622:	02090103          	lb	sp,32(s2)
 626:	0100                	addi	s0,sp,128
 628:	02090103          	lb	sp,32(s2)
 62c:	0100                	addi	s0,sp,128
 62e:	02090103          	lb	sp,32(s2)
 632:	0100                	addi	s0,sp,128
 634:	02090103          	lb	sp,32(s2)
 638:	0100                	addi	s0,sp,128
 63a:	02090103          	lb	sp,32(s2)
 63e:	0100                	addi	s0,sp,128
 640:	02090103          	lb	sp,32(s2)
 644:	0100                	addi	s0,sp,128
 646:	02090103          	lb	sp,32(s2)
 64a:	0100                	addi	s0,sp,128
 64c:	02090103          	lb	sp,32(s2)
 650:	0100                	addi	s0,sp,128
 652:	02090103          	lb	sp,32(s2)
 656:	0100                	addi	s0,sp,128
 658:	02090403          	lb	s0,32(s2)
 65c:	0100                	addi	s0,sp,128
 65e:	08090403          	lb	s0,128(s2)
 662:	0100                	addi	s0,sp,128
 664:	04090103          	lb	sp,64(s2)
 668:	0100                	addi	s0,sp,128
 66a:	04090103          	lb	sp,64(s2)
 66e:	0100                	addi	s0,sp,128
 670:	04090103          	lb	sp,64(s2)
 674:	0100                	addi	s0,sp,128
 676:	08090303          	lb	t1,128(s2)
 67a:	0100                	addi	s0,sp,128
 67c:	08090103          	lb	sp,128(s2)
 680:	0100                	addi	s0,sp,128
 682:	04090103          	lb	sp,64(s2)
 686:	0100                	addi	s0,sp,128
 688:	04090203          	lb	tp,64(s2)
 68c:	0100                	addi	s0,sp,128
 68e:	04090b03          	lb	s6,64(s2)
 692:	0100                	addi	s0,sp,128
 694:	04090303          	lb	t1,64(s2)
 698:	0100                	addi	s0,sp,128
 69a:	04090203          	lb	tp,64(s2)
 69e:	0100                	addi	s0,sp,128
 6a0:	0409                	addi	s0,s0,2
 6a2:	0000                	unimp
 6a4:	0101                	addi	sp,sp,0
 6a6:	0500                	addi	s0,sp,640
 6a8:	0002                	c.slli64	zero
 6aa:	0000                	unimp
 6ac:	0300                	addi	s0,sp,384
 6ae:	03010183          	lb	gp,48(sp)
 6b2:	0902                	c.slli64	s2
 6b4:	0002                	c.slli64	zero
 6b6:	0301                	addi	t1,t1,0
 6b8:	0901                	addi	s2,s2,0
 6ba:	0002                	c.slli64	zero
 6bc:	0301                	addi	t1,t1,0
 6be:	0901                	addi	s2,s2,0
 6c0:	0002                	c.slli64	zero
 6c2:	0301                	addi	t1,t1,0
 6c4:	0901                	addi	s2,s2,0
 6c6:	0002                	c.slli64	zero
 6c8:	0301                	addi	t1,t1,0
 6ca:	0901                	addi	s2,s2,0
 6cc:	0002                	c.slli64	zero
 6ce:	0301                	addi	t1,t1,0
 6d0:	0901                	addi	s2,s2,0
 6d2:	0002                	c.slli64	zero
 6d4:	0301                	addi	t1,t1,0
 6d6:	0901                	addi	s2,s2,0
 6d8:	0002                	c.slli64	zero
 6da:	0301                	addi	t1,t1,0
 6dc:	0901                	addi	s2,s2,0
 6de:	0002                	c.slli64	zero
 6e0:	0301                	addi	t1,t1,0
 6e2:	0901                	addi	s2,s2,0
 6e4:	0002                	c.slli64	zero
 6e6:	0301                	addi	t1,t1,0
 6e8:	0901                	addi	s2,s2,0
 6ea:	0002                	c.slli64	zero
 6ec:	0301                	addi	t1,t1,0
 6ee:	0901                	addi	s2,s2,0
 6f0:	0002                	c.slli64	zero
 6f2:	0301                	addi	t1,t1,0
 6f4:	0901                	addi	s2,s2,0
 6f6:	0002                	c.slli64	zero
 6f8:	0301                	addi	t1,t1,0
 6fa:	0901                	addi	s2,s2,0
 6fc:	0002                	c.slli64	zero
 6fe:	0301                	addi	t1,t1,0
 700:	0901                	addi	s2,s2,0
 702:	0002                	c.slli64	zero
 704:	0301                	addi	t1,t1,0
 706:	0901                	addi	s2,s2,0
 708:	0002                	c.slli64	zero
 70a:	0301                	addi	t1,t1,0
 70c:	0901                	addi	s2,s2,0
 70e:	0002                	c.slli64	zero
 710:	0301                	addi	t1,t1,0
 712:	0902                	c.slli64	s2
 714:	0002                	c.slli64	zero
 716:	0301                	addi	t1,t1,0
 718:	0901                	addi	s2,s2,0
 71a:	0004                	0x4
 71c:	0301                	addi	t1,t1,0
 71e:	0902                	c.slli64	s2
 720:	0004                	0x4
 722:	0301                	addi	t1,t1,0
 724:	0901                	addi	s2,s2,0
 726:	0002                	c.slli64	zero
 728:	0301                	addi	t1,t1,0
 72a:	0901                	addi	s2,s2,0
 72c:	0002                	c.slli64	zero
 72e:	0301                	addi	t1,t1,0
 730:	0901                	addi	s2,s2,0
 732:	0002                	c.slli64	zero
 734:	0301                	addi	t1,t1,0
 736:	0901                	addi	s2,s2,0
 738:	0002                	c.slli64	zero
 73a:	0301                	addi	t1,t1,0
 73c:	0901                	addi	s2,s2,0
 73e:	0002                	c.slli64	zero
 740:	0301                	addi	t1,t1,0
 742:	0901                	addi	s2,s2,0
 744:	0002                	c.slli64	zero
 746:	0301                	addi	t1,t1,0
 748:	0901                	addi	s2,s2,0
 74a:	0002                	c.slli64	zero
 74c:	0301                	addi	t1,t1,0
 74e:	0901                	addi	s2,s2,0
 750:	0002                	c.slli64	zero
 752:	0301                	addi	t1,t1,0
 754:	0901                	addi	s2,s2,0
 756:	0002                	c.slli64	zero
 758:	0301                	addi	t1,t1,0
 75a:	0901                	addi	s2,s2,0
 75c:	0002                	c.slli64	zero
 75e:	0301                	addi	t1,t1,0
 760:	0901                	addi	s2,s2,0
 762:	0002                	c.slli64	zero
 764:	0301                	addi	t1,t1,0
 766:	0901                	addi	s2,s2,0
 768:	0002                	c.slli64	zero
 76a:	0301                	addi	t1,t1,0
 76c:	0901                	addi	s2,s2,0
 76e:	0002                	c.slli64	zero
 770:	0301                	addi	t1,t1,0
 772:	0901                	addi	s2,s2,0
 774:	0002                	c.slli64	zero
 776:	0301                	addi	t1,t1,0
 778:	0901                	addi	s2,s2,0
 77a:	0002                	c.slli64	zero
 77c:	0301                	addi	t1,t1,0
 77e:	0902                	c.slli64	s2
 780:	0002                	c.slli64	zero
 782:	0301                	addi	t1,t1,0
 784:	0901                	addi	s2,s2,0
 786:	0002                	c.slli64	zero
 788:	0901                	addi	s2,s2,0
 78a:	0004                	0x4
 78c:	0100                	addi	s0,sp,128
 78e:	0001                	nop
 790:	0205                	addi	tp,tp,1
 792:	224a                	fld	ft4,144(sp)
 794:	0800                	addi	s0,sp,16
 796:	0101b203          	0x101b203
 79a:	08090103          	lb	sp,128(s2)
 79e:	0100                	addi	s0,sp,128
 7a0:	04090103          	lb	sp,64(s2)
 7a4:	0100                	addi	s0,sp,128
 7a6:	02090503          	lb	a0,32(s2)
 7aa:	0100                	addi	s0,sp,128
 7ac:	0209                	addi	tp,tp,2
 7ae:	0000                	unimp
 7b0:	0101                	addi	sp,sp,0

Disassembly of section .comment:

00000000 <.comment>:
   0:	694c                	flw	fa1,20(a0)
   2:	6b6e                	flw	fs6,216(sp)
   4:	7265                	lui	tp,0xffff9
   6:	203a                	fld	ft0,392(sp)
   8:	4c4c                	lw	a1,28(s0)
   a:	2044                	fld	fs1,128(s0)
   c:	3131                	jal	fffffc18 <_stack_start+0xdfff7c18>
   e:	302e                	fld	ft0,232(sp)
  10:	302e                	fld	ft0,232(sp)
	...
